Certificate:
    Data:
        Version: 3 (0x2)
        Serial Number:
            c7:cb:ad:e7:38:7d:ea:1a
        Signature Algorithm: sha1WithRSAEncryption
        Issuer: O=Flumotion Services S.A., O=https://github.com/f3at/feat, OU=Feat Core Team, CN=Feat Development Root CA/emailAddress=kowalski0123@gmail.com, L=Barcelona, ST=Spain, C=ES
        Validity
            Not Before: Mar 14 11:27:38 2012 GMT
            Not After : Mar 10 11:27:38 2028 GMT
        Subject: O=Flumotion Services S.A., O=https://github.com/f3at/feat, OU=Feat Core Team, CN=Feat Development Root CA/emailAddress=kowalski0123@gmail.com, L=Barcelona, ST=Spain, C=ES
        Subject Public Key Info:
            Public Key Algorithm: rsaEncryption
            RSA Public Key: (2048 bit)
                Modulus (2048 bit):
                    00:c5:06:82:53:74:6b:43:3e:17:ff:e4:d6:2e:65:
                    17:11:5f:53:b3:56:0d:29:7c:0d:f4:c4:87:c7:26:
                    88:9d:7d:3a:df:19:c1:18:d1:46:b9:08:44:b0:69:
                    70:8e:2c:53:e9:c7:7b:22:1a:b3:2b:1f:e8:7b:a1:
                    b7:1c:f0:6f:bd:31:9c:96:5c:b8:60:a6:2b:52:d4:
                    fb:2a:58:de:97:4e:e6:e9:50:52:0a:ab:0f:e4:6e:
                    72:aa:2e:f0:23:e6:85:cc:0f:de:e6:5d:85:97:27:
                    77:f6:b5:a1:a2:0c:2d:50:97:95:e3:f8:2d:74:56:
                    be:e7:f9:2c:86:fe:5d:39:68:ef:bf:3e:50:36:2f:
                    49:6b:d1:9b:74:fd:b4:1c:49:18:6c:78:85:2c:22:
                    ee:7b:9f:ec:fb:c6:12:87:31:ce:23:9e:ca:08:c9:
                    d6:fe:51:03:c9:d6:5d:7b:d6:f4:10:b4:7c:f3:98:
                    86:b4:3e:c5:65:39:e7:6a:a0:95:0d:7d:bc:2e:35:
                    73:d6:ca:43:7d:00:6d:70:44:a9:1c:91:69:aa:c2:
                    9c:16:af:b2:70:4d:23:a5:29:25:ba:63:97:b0:3c:
                    31:d4:45:08:d0:5c:14:13:8c:c9:69:fb:a7:72:06:
                    d7:04:23:52:05:92:15:1a:76:b4:f6:eb:d2:23:4d:
                    52:3d
                Exponent: 65537 (0x10001)
        X509v3 extensions:
            X509v3 Basic Constraints: 
                CA:TRUE
            X509v3 Key Usage: critical
                Certificate Sign, CRL Sign
            X509v3 Subject Key Identifier: 
                20:86:90:FC:C8:6D:2A:D5:4F:93:06:9B:31:40:29:30:27:4A:02:08
            X509v3 Authority Key Identifier: 
                keyid:20:86:90:FC:C8:6D:2A:D5:4F:93:06:9B:31:40:29:30:27:4A:02:08
                DirName:/O=Flumotion Services S.A./O=https://github.com/f3at/feat/OU=Feat Core Team/CN=Feat Development Root CA/emailAddress=kowalski0123@gmail.com/L=Barcelona/ST=Spain/C=ES
                serial:C7:CB:AD:E7:38:7D:EA:1A

            Authority Information Access: 
                CA Issuers - URI:https://github.com/f3at/feat/dev_ca/cainfo.html

            X509v3 CRL Distribution Points: 
                URI:https://github.com/f3at/feat/dev_crl/root_ca.crl

            X509v3 Certificate Policies: 
                Policy: Feat-CPS
                  CPS: https://github.com/f3at/feat/dev_ca/feat_cps.html
                  User Notice:
                    Explicit Text: Flumotion Services S.A. Development Certification Practice Statement

    Signature Algorithm: sha1WithRSAEncryption
        72:f4:8e:55:50:b6:ee:a6:46:b7:9a:fe:cc:f7:ff:fa:67:8c:
        d0:d9:10:65:ed:77:b7:76:79:4f:68:bc:84:77:1e:a1:7a:4f:
        05:5e:46:d3:59:50:88:8f:58:32:df:cb:3f:c0:3b:48:c8:64:
        a0:82:b2:e1:1b:62:01:ae:46:97:ce:a8:3f:59:57:8b:02:04:
        ae:fd:20:60:b2:37:74:94:3c:b6:6e:12:de:72:3b:37:bc:71:
        26:15:70:c1:b4:8e:74:31:15:61:38:2a:5f:90:af:53:14:b1:
        81:cc:9d:28:0f:03:94:b5:83:35:86:91:d8:0b:29:aa:09:7e:
        5b:cf:53:f0:ee:dc:6c:7e:57:5f:8c:2e:6d:82:9e:c3:06:78:
        af:c7:b0:1f:43:40:12:d7:51:a5:bd:f5:74:8f:fd:df:6e:77:
        5c:12:62:fa:25:83:ca:bf:09:a6:55:4f:19:45:3a:0f:89:61:
        2c:ec:5b:5a:81:53:f0:26:e0:dd:c8:4d:c1:9d:8e:bc:85:e6:
        07:5e:57:b7:3a:19:87:ad:a5:5f:fd:86:76:d2:c4:dd:c0:99:
        99:77:41:ed:c0:02:3d:a1:87:b2:7c:91:9c:bc:f5:86:0c:14:
        f3:8c:31:ac:4f:58:22:11:89:84:3f:a7:b5:7f:94:0e:a8:a4:
        1c:8a:58:2e
-----BEGIN CERTIFICATE-----
MIIG3TCCBcWgAwIBAgIJAMfLrec4feoaMA0GCSqGSIb3DQEBBQUAMIHdMSAwHgYD
VQQKExdGbHVtb3Rpb24gU2VydmljZXMgUy5BLjElMCMGA1UEChMcaHR0cHM6Ly9n
aXRodWIuY29tL2YzYXQvZmVhdDEXMBUGA1UECxMORmVhdCBDb3JlIFRlYW0xITAf
BgNVBAMTGEZlYXQgRGV2ZWxvcG1lbnQgUm9vdCBDQTElMCMGCSqGSIb3DQEJARYW
a293YWxza2kwMTIzQGdtYWlsLmNvbTESMBAGA1UEBxMJQmFyY2Vsb25hMQ4wDAYD
VQQIEwVTcGFpbjELMAkGA1UEBhMCRVMwHhcNMTIwMzE0MTEyNzM4WhcNMjgwMzEw
MTEyNzM4WjCB3TEgMB4GA1UEChMXRmx1bW90aW9uIFNlcnZpY2VzIFMuQS4xJTAj
BgNVBAoTHGh0dHBzOi8vZ2l0aHViLmNvbS9mM2F0L2ZlYXQxFzAVBgNVBAsTDkZl
YXQgQ29yZSBUZWFtMSEwHwYDVQQDExhGZWF0IERldmVsb3BtZW50IFJvb3QgQ0Ex
JTAjBgkqhkiG9w0BCQEWFmtvd2Fsc2tpMDEyM0BnbWFpbC5jb20xEjAQBgNVBAcT
CUJhcmNlbG9uYTEOMAwGA1UECBMFU3BhaW4xCzAJBgNVBAYTAkVTMIIBIjANBgkq
hkiG9w0BAQEFAAOCAQ8AMIIBCgKCAQEAxQaCU3RrQz4X/+TWLmUXEV9Ts1YNKXwN
9MSHxyaInX063xnBGNFGuQhEsGlwjixT6cd7IhqzKx/oe6G3HPBvvTGclly4YKYr
UtT7Kljel07m6VBSCqsP5G5yqi7wI+aFzA/e5l2Flyd39rWhogwtUJeV4/gtdFa+
5/kshv5dOWjvvz5QNi9Ja9GbdP20HEkYbHiFLCLue5/s+8YShzHOI57KCMnW/lED
ydZde9b0ELR885iGtD7FZTnnaqCVDX28LjVz1spDfQBtcESpHJFpqsKcFq+ycE0j
pSklumOXsDwx1EUI0FwUE4zJafuncgbXBCNSBZIVGna09uvSI01SPQIDAQABo4IC
nDCCApgwDAYDVR0TBAUwAwEB/zAOBgNVHQ8BAf8EBAMCAQYwHQYDVR0OBBYEFCCG
kPzIbSrVT5MGmzFAKTAnSgIIMIIBFAYDVR0jBIIBCzCCAQeAFCCGkPzIbSrVT5MG
mzFAKTAnSgIIoYHjpIHgMIHdMSAwHgYDVQQKExdGbHVtb3Rpb24gU2VydmljZXMg
Uy5BLjElMCMGA1UEChMcaHR0cHM6Ly9naXRodWIuY29tL2YzYXQvZmVhdDEXMBUG
A1UECxMORmVhdCBDb3JlIFRlYW0xITAfBgNVBAMTGEZlYXQgRGV2ZWxvcG1lbnQg
Um9vdCBDQTElMCMGCSqGSIb3DQEJARYWa293YWxza2kwMTIzQGdtYWlsLmNvbTES
MBAGA1UEBxMJQmFyY2Vsb25hMQ4wDAYDVQQIEwVTcGFpbjELMAkGA1UEBhMCRVOC
CQDHy63nOH3qGjBLBggrBgEFBQcBAQQ/MD0wOwYIKwYBBQUHMAKGL2h0dHBzOi8v
Z2l0aHViLmNvbS9mM2F0L2ZlYXQvZGV2X2NhL2NhaW5mby5odG1sMEEGA1UdHwQ6
MDgwNqA0oDKGMGh0dHBzOi8vZ2l0aHViLmNvbS9mM2F0L2ZlYXQvZGV2X2NybC9y
b290X2NhLmNybDCBsAYDVR0gBIGoMIGlMIGiBgorBgEEAYHyJAEBMIGTMD0GCCsG
AQUFBwIBFjFodHRwczovL2dpdGh1Yi5jb20vZjNhdC9mZWF0L2Rldl9jYS9mZWF0
X2Nwcy5odG1sMFIGCCsGAQUFBwICMEYaREZsdW1vdGlvbiBTZXJ2aWNlcyBTLkEu
IERldmVsb3BtZW50IENlcnRpZmljYXRpb24gUHJhY3RpY2UgU3RhdGVtZW50MA0G
CSqGSIb3DQEBBQUAA4IBAQBy9I5VULbupka3mv7M9//6Z4zQ2RBl7Xe3dnlPaLyE
dx6hek8FXkbTWVCIj1gy38s/wDtIyGSggrLhG2IBrkaXzqg/WVeLAgSu/SBgsjd0
lDy2bhLecjs3vHEmFXDBtI50MRVhOCpfkK9TFLGBzJ0oDwOUtYM1hpHYCymqCX5b
z1Pw7txsfldfjC5tgp7DBnivx7AfQ0AS11GlvfV0j/3fbndcEmL6JYPKvwmmVU8Z
RToPiWEs7FtagVPwJuDdyE3BnY68heYHXle3OhmHraVf/YZ20sTdwJmZd0HtwAI9
oYeyfJGcvPWGDBTzjDGsT1giEYmEP6e1f5QOqKQcilgu
-----END CERTIFICATE-----
Certificate:
    Data:
        Version: 3 (0x2)
        Serial Number:
            c7:cb:ad:e7:38:7d:ea:1c
        Signature Algorithm: sha1WithRSAEncryption
        Issuer: O=Flumotion Services S.A., O=https://github.com/f3at/feat, OU=Feat Core Team, CN=Feat Development Root CA/emailAddress=kowalski0123@gmail.com, L=Barcelona, ST=Spain, C=ES
        Validity
            Not Before: Mar 14 11:28:12 2012 GMT
            Not After : Mar 12 11:28:12 2020 GMT
        Subject: O=Flumotion Services S.A., O=https://github.com/f3at/feat, OU=Feat Core Team, CN=Feat Development Gateway CA/emailAddress=kowalski0123@gmail.com, L=Barcelona, ST=Spain, C=ES
        Subject Public Key Info:
            Public Key Algorithm: rsaEncryption
            RSA Public Key: (2048 bit)
                Modulus (2048 bit):
                    00:ae:f8:00:19:c8:81:cb:ca:6a:26:62:5b:77:4a:
                    0f:75:d2:ab:41:b0:3b:f6:a7:86:97:d0:5f:94:c3:
                    b8:eb:f5:82:e9:9a:a1:99:78:8c:bf:04:20:98:ad:
                    9c:b9:69:ab:2c:d0:43:af:ab:77:b7:da:19:82:95:
                    49:10:68:5c:96:90:d5:79:42:d6:31:62:cf:c5:d3:
                    67:7a:e8:c9:b4:3f:5b:8b:10:85:0f:b9:92:1e:dd:
                    50:a7:2a:b5:9d:b5:5e:d9:5c:64:e1:a6:b4:c9:df:
                    45:e7:21:12:0e:7b:2f:d3:b7:a5:9c:5f:3a:bd:6a:
                    b5:40:93:f7:ba:97:05:c7:75:18:67:0c:95:c5:8e:
                    70:d7:8a:18:f9:85:64:a5:27:d8:50:20:16:00:8d:
                    5d:a7:a2:9f:00:e6:a6:6f:4c:19:2a:e4:43:d2:87:
                    d0:49:82:a9:2b:0c:49:99:90:45:c8:d4:52:f8:42:
                    bd:06:67:f1:09:c2:e4:69:69:26:7e:e2:a1:22:96:
                    65:4b:89:25:46:b0:8f:8b:ae:dd:6d:6a:45:60:b6:
                    c2:e6:d0:15:27:fe:f3:10:51:b1:a8:aa:7a:f5:d1:
                    3a:c6:e9:9b:60:f8:28:e2:90:32:ad:ea:19:ab:b8:
                    6f:c6:a9:9c:49:2d:80:69:aa:a1:3b:38:e0:3b:21:
                    c3:1b
                Exponent: 65537 (0x10001)
        X509v3 extensions:
            X509v3 Basic Constraints: 
                CA:TRUE
            X509v3 Key Usage: critical
                Certificate Sign, CRL Sign
            X509v3 Subject Key Identifier: 
                EB:1F:C2:B0:2F:06:41:F8:9F:C2:9C:10:96:07:39:51:E0:40:71:EA
            X509v3 Authority Key Identifier: 
                keyid:20:86:90:FC:C8:6D:2A:D5:4F:93:06:9B:31:40:29:30:27:4A:02:08

            Authority Information Access: 
                CA Issuers - URI:https://github.com/f3at/feat/dev_ca/cainfo.html

            X509v3 CRL Distribution Points: 
                URI:https://github.com/f3at/feat/dev_crl/root_ca.crl

            X509v3 Certificate Policies: 
                Policy: Feat-CPS
                  CPS: https://github.com/f3at/feat/dev_ca/feat_cps.html
                  User Notice:
                    Explicit Text: Flumotion Services S.A. Development Certification Practice Statement
                Policy: Feat-CA-Cert
                  User Notice:
                    Explicit Text: Flumotion Services S.A. Development CA Certificate Policy

    Signature Algorithm: sha1WithRSAEncryption
        0b:77:99:dd:87:6e:a1:67:4e:8b:38:18:3a:c8:cf:b4:56:f6:
        49:fc:f6:a2:08:bf:12:12:9c:ee:cc:dc:06:1a:f9:37:ce:e8:
        f1:3a:33:4b:ea:92:ca:ba:80:f4:63:fe:7f:d3:97:d1:a8:71:
        ed:4f:57:e6:4f:8f:a9:7c:79:42:22:e4:80:b6:3b:a9:0c:65:
        81:52:e0:ae:bb:65:d3:5f:64:80:ed:40:a8:ed:37:a8:7b:ec:
        12:c8:5a:f0:1a:0b:09:de:16:12:cd:80:9e:36:49:b5:19:bb:
        b2:3e:d2:9c:f5:03:0d:d1:5c:31:ad:ba:6e:ff:68:20:13:cc:
        17:1d:27:ad:2c:66:3f:4f:88:f7:a5:d3:22:f1:a6:9a:b1:af:
        23:3e:54:55:9e:6f:4b:3f:c6:95:f7:42:94:0c:fa:0f:d4:bf:
        74:ac:a9:38:8e:4d:39:e9:f7:66:4a:09:cf:ac:14:e5:38:10:
        79:90:41:e5:46:3a:cc:40:7c:ff:f7:02:6f:85:43:6a:7a:91:
        e1:bb:b6:43:5b:9a:4d:56:2f:c7:3a:cc:97:24:11:db:29:40:
        52:84:14:f7:e3:ad:76:2e:ad:78:91:52:87:80:3f:e9:7f:4e:
        c8:24:b6:a3:1e:9b:08:af:8a:da:b8:80:a2:3f:6c:05:4c:ca:
        09:8c:83:13
-----BEGIN CERTIFICATE-----
MIIGRDCCBSygAwIBAgIJAMfLrec4feocMA0GCSqGSIb3DQEBBQUAMIHdMSAwHgYD
VQQKExdGbHVtb3Rpb24gU2VydmljZXMgUy5BLjElMCMGA1UEChMcaHR0cHM6Ly9n
aXRodWIuY29tL2YzYXQvZmVhdDEXMBUGA1UECxMORmVhdCBDb3JlIFRlYW0xITAf
BgNVBAMTGEZlYXQgRGV2ZWxvcG1lbnQgUm9vdCBDQTElMCMGCSqGSIb3DQEJARYW
a293YWxza2kwMTIzQGdtYWlsLmNvbTESMBAGA1UEBxMJQmFyY2Vsb25hMQ4wDAYD
VQQIEwVTcGFpbjELMAkGA1UEBhMCRVMwHhcNMTIwMzE0MTEyODEyWhcNMjAwMzEy
MTEyODEyWjCB4DEgMB4GA1UEChMXRmx1bW90aW9uIFNlcnZpY2VzIFMuQS4xJTAj
BgNVBAoTHGh0dHBzOi8vZ2l0aHViLmNvbS9mM2F0L2ZlYXQxFzAVBgNVBAsTDkZl
YXQgQ29yZSBUZWFtMSQwIgYDVQQDExtGZWF0IERldmVsb3BtZW50IEdhdGV3YXkg
Q0ExJTAjBgkqhkiG9w0BCQEWFmtvd2Fsc2tpMDEyM0BnbWFpbC5jb20xEjAQBgNV
BAcTCUJhcmNlbG9uYTEOMAwGA1UECBMFU3BhaW4xCzAJBgNVBAYTAkVTMIIBIjAN
BgkqhkiG9w0BAQEFAAOCAQ8AMIIBCgKCAQEArvgAGciBy8pqJmJbd0oPddKrQbA7
9qeGl9BflMO46/WC6ZqhmXiMvwQgmK2cuWmrLNBDr6t3t9oZgpVJEGhclpDVeULW
MWLPxdNneujJtD9bixCFD7mSHt1Qpyq1nbVe2Vxk4aa0yd9F5yESDnsv07elnF86
vWq1QJP3upcFx3UYZwyVxY5w14oY+YVkpSfYUCAWAI1dp6KfAOamb0wZKuRD0ofQ
SYKpKwxJmZBFyNRS+EK9BmfxCcLkaWkmfuKhIpZlS4klRrCPi67dbWpFYLbC5tAV
J/7zEFGxqKp69dE6xumbYPgo4pAyreoZq7hvxqmcSS2AaaqhOzjgOyHDGwIDAQAB
o4ICADCCAfwwDAYDVR0TBAUwAwEB/zAOBgNVHQ8BAf8EBAMCAQYwHQYDVR0OBBYE
FOsfwrAvBkH4n8KcEJYHOVHgQHHqMB8GA1UdIwQYMBaAFCCGkPzIbSrVT5MGmzFA
KTAnSgIIMEsGCCsGAQUFBwEBBD8wPTA7BggrBgEFBQcwAoYvaHR0cHM6Ly9naXRo
dWIuY29tL2YzYXQvZmVhdC9kZXZfY2EvY2FpbmZvLmh0bWwwQQYDVR0fBDowODA2
oDSgMoYwaHR0cHM6Ly9naXRodWIuY29tL2YzYXQvZmVhdC9kZXZfY3JsL3Jvb3Rf
Y2EuY3JsMIIBCgYDVR0gBIIBATCB/jCBogYKKwYBBAGB8iQBATCBkzA9BggrBgEF
BQcCARYxaHR0cHM6Ly9naXRodWIuY29tL2YzYXQvZmVhdC9kZXZfY2EvZmVhdF9j
cHMuaHRtbDBSBggrBgEFBQcCAjBGGkRGbHVtb3Rpb24gU2VydmljZXMgUy5BLiBE
ZXZlbG9wbWVudCBDZXJ0aWZpY2F0aW9uIFByYWN0aWNlIFN0YXRlbWVudDBXBgor
BgEEAYHyJAECMEkwRwYIKwYBBQUHAgIwOxo5Rmx1bW90aW9uIFNlcnZpY2VzIFMu
QS4gRGV2ZWxvcG1lbnQgQ0EgQ2VydGlmaWNhdGUgUG9saWN5MA0GCSqGSIb3DQEB
BQUAA4IBAQALd5ndh26hZ06LOBg6yM+0VvZJ/PaiCL8SEpzuzNwGGvk3zujxOjNL
6pLKuoD0Y/5/05fRqHHtT1fmT4+pfHlCIuSAtjupDGWBUuCuu2XTX2SA7UCo7Teo
e+wSyFrwGgsJ3hYSzYCeNkm1GbuyPtKc9QMN0Vwxrbpu/2ggE8wXHSetLGY/T4j3
pdMi8aaasa8jPlRVnm9LP8aV90KUDPoP1L90rKk4jk056fdmSgnPrBTlOBB5kEHl
RjrMQHz/9wJvhUNqepHhu7ZDW5pNVi/HOsyXJBHbKUBShBT34612Lq14kVKHgD/p
f07IJLajHpsIr4rauICiP2wFTMoJjIMT
-----END CERTIFICATE-----
