Certificate:
    Data:
        Version: 3 (0x2)
        Serial Number:
            63:da:a7:b6:4f:61:4c:01
        Signature Algorithm: sha1WithRSAEncryption
        Issuer: O=Flumotion Services S.A., O=https://github.com/f3at/feat, OU=Feat Core Team, CN=Feat Development Gateway CA/emailAddress=kowalski0123@gmail.com, L=Barcelona, ST=Spain, C=ES
        Validity
            Not Before: Mar 14 11:28:22 2012 GMT
            Not After : Mar 12 11:28:22 2020 GMT
        Subject: O=Flumotion Services S.A., O=https://github.com/f3at/feat, OU=Feat Core Team, CN=Default,admin/emailAddress=kowalski0123@gmail.com, L=Barcelona, ST=Spain, C=ES
        Subject Public Key Info:
            Public Key Algorithm: rsaEncryption
            RSA Public Key: (1024 bit)
                Modulus (1024 bit):
                    00:d5:53:14:3c:72:96:39:c4:16:0e:1c:e0:a3:c5:
                    d1:bd:b0:31:8e:c1:f0:94:72:a0:2e:2e:c9:40:0c:
                    ae:7f:93:bd:40:9e:1e:d0:ff:60:59:e0:cb:d0:7d:
                    b2:fa:ce:8b:91:f4:bb:54:fb:8b:0b:1a:9b:bf:44:
                    af:d2:86:d6:61:ef:3f:d7:b1:d4:91:f0:c5:6b:20:
                    15:70:e5:5f:85:a8:d9:df:72:8c:41:13:05:cf:33:
                    8c:0b:e0:67:c4:b2:3f:bf:8b:70:dc:48:3a:68:be:
                    f0:5d:58:15:f1:20:e8:8b:b7:c7:b5:99:23:46:c7:
                    87:65:65:32:31:79:28:f1:33
                Exponent: 65537 (0x10001)
        X509v3 extensions:
            X509v3 Basic Constraints: 
                CA:FALSE
            Netscape Comment: 
                SSL Client Certificate
            X509v3 Key Usage: 
                Digital Signature, Key Encipherment
            X509v3 Extended Key Usage: 
                TLS Web Client Authentication
            Netscape Cert Type: 
                SSL Client
            X509v3 Subject Key Identifier: 
                6E:58:7A:EB:7E:A6:04:6F:C8:D2:89:4D:60:67:AA:34:7C:88:0D:A0
            X509v3 Authority Key Identifier: 
                keyid:EB:1F:C2:B0:2F:06:41:F8:9F:C2:9C:10:96:07:39:51:E0:40:71:EA
                DirName:/O=Flumotion Services S.A./O=https://github.com/f3at/feat/OU=Feat Core Team/CN=Feat Development Root CA/emailAddress=kowalski0123@gmail.com/L=Barcelona/ST=Spain/C=ES
                serial:C7:CB:AD:E7:38:7D:EA:1C

            Authority Information Access: 
                CA Issuers - URI:https://github.com/f3at/feat/dev_ca/cainfo.html

            X509v3 CRL Distribution Points: 
                URI:https://github.com/f3at/feat/dev_crl/issuing_ca.crl

            X509v3 Certificate Policies: 
                Policy: Feat-CPS
                  CPS: https://github.com/f3at/feat/dev_ca/feat_cps.html
                  User Notice:
                    Explicit Text: Flumotion Services S.A. Certification Practice Statement
                Policy: Feat-TLS-WEB-Cert
                  User Notice:
                    Explicit Text: Flumotion Services S.A. Secure Communications Web Server Certificate Policy

    Signature Algorithm: sha1WithRSAEncryption
        35:f1:c1:53:09:d0:62:de:c1:eb:34:10:f8:26:55:79:eb:dc:
        5e:6b:02:97:1b:63:54:17:43:86:a6:b8:32:d4:18:d1:1a:97:
        76:77:02:e0:7e:fe:49:78:16:e2:d5:b0:a0:be:be:bc:38:7c:
        be:54:6b:2c:13:f6:1e:80:99:c0:7f:d3:3d:11:84:fc:25:8f:
        f0:ef:28:c6:14:a8:6f:2a:46:e4:40:cd:8e:96:f2:67:e8:a4:
        f4:74:8b:2b:5c:56:97:6e:d4:50:d7:a4:2a:58:12:40:43:1d:
        61:15:1c:8b:04:3f:d2:d8:ae:1f:49:a0:99:a5:89:2c:5e:b6:
        6b:1a:6b:7f:8f:92:bd:81:5a:ab:99:d9:91:21:22:af:75:2f:
        9a:8c:ba:62:38:43:80:b7:1b:4d:41:92:c2:5e:80:e9:e9:95:
        2f:57:fb:38:ba:dd:ae:35:ae:99:94:62:38:09:fd:68:15:e7:
        40:bc:2a:c6:76:1b:80:c2:f3:0e:63:67:42:c1:73:16:a2:88:
        a5:87:df:11:92:21:59:4d:42:07:77:a7:e2:38:be:a8:90:20:
        86:82:65:2a:0e:62:db:07:7e:11:74:53:d8:fa:fd:80:a7:b4:
        ec:41:88:22:0b:f4:ce:fd:9e:7a:06:74:05:87:73:0a:5c:ef:
        3b:73:d4:1e
-----BEGIN CERTIFICATE-----
MIIG/jCCBeagAwIBAgIIY9qntk9hTAEwDQYJKoZIhvcNAQEFBQAwgeAxIDAeBgNV
BAoTF0ZsdW1vdGlvbiBTZXJ2aWNlcyBTLkEuMSUwIwYDVQQKExxodHRwczovL2dp
dGh1Yi5jb20vZjNhdC9mZWF0MRcwFQYDVQQLEw5GZWF0IENvcmUgVGVhbTEkMCIG
A1UEAxMbRmVhdCBEZXZlbG9wbWVudCBHYXRld2F5IENBMSUwIwYJKoZIhvcNAQkB
FhZrb3dhbHNraTAxMjNAZ21haWwuY29tMRIwEAYDVQQHEwlCYXJjZWxvbmExDjAM
BgNVBAgTBVNwYWluMQswCQYDVQQGEwJFUzAeFw0xMjAzMTQxMTI4MjJaFw0yMDAz
MTIxMTI4MjJaMIHSMSAwHgYDVQQKExdGbHVtb3Rpb24gU2VydmljZXMgUy5BLjEl
MCMGA1UEChMcaHR0cHM6Ly9naXRodWIuY29tL2YzYXQvZmVhdDEXMBUGA1UECxMO
RmVhdCBDb3JlIFRlYW0xFjAUBgNVBAMTDURlZmF1bHQsYWRtaW4xJTAjBgkqhkiG
9w0BCQEWFmtvd2Fsc2tpMDEyM0BnbWFpbC5jb20xEjAQBgNVBAcTCUJhcmNlbG9u
YTEOMAwGA1UECBMFU3BhaW4xCzAJBgNVBAYTAkVTMIGfMA0GCSqGSIb3DQEBAQUA
A4GNADCBiQKBgQDVUxQ8cpY5xBYOHOCjxdG9sDGOwfCUcqAuLslADK5/k71Anh7Q
/2BZ4MvQfbL6zouR9LtU+4sLGpu/RK/ShtZh7z/XsdSR8MVrIBVw5V+FqNnfcoxB
EwXPM4wL4GfEsj+/i3DcSDpovvBdWBXxIOiLt8e1mSNGx4dlZTIxeSjxMwIDAQAB
o4IDSjCCA0YwCQYDVR0TBAIwADAlBglghkgBhvhCAQ0EGBYWU1NMIENsaWVudCBD
ZXJ0aWZpY2F0ZTALBgNVHQ8EBAMCBaAwEwYDVR0lBAwwCgYIKwYBBQUHAwIwEQYJ
YIZIAYb4QgEBBAQDAgeAMB0GA1UdDgQWBBRuWHrrfqYEb8jSiU1gZ6o0fIgNoDCC
ARQGA1UdIwSCAQswggEHgBTrH8KwLwZB+J/CnBCWBzlR4EBx6qGB46SB4DCB3TEg
MB4GA1UEChMXRmx1bW90aW9uIFNlcnZpY2VzIFMuQS4xJTAjBgNVBAoTHGh0dHBz
Oi8vZ2l0aHViLmNvbS9mM2F0L2ZlYXQxFzAVBgNVBAsTDkZlYXQgQ29yZSBUZWFt
MSEwHwYDVQQDExhGZWF0IERldmVsb3BtZW50IFJvb3QgQ0ExJTAjBgkqhkiG9w0B
CQEWFmtvd2Fsc2tpMDEyM0BnbWFpbC5jb20xEjAQBgNVBAcTCUJhcmNlbG9uYTEO
MAwGA1UECBMFU3BhaW4xCzAJBgNVBAYTAkVTggkAx8ut5zh96hwwSwYIKwYBBQUH
AQEEPzA9MDsGCCsGAQUFBzAChi9odHRwczovL2dpdGh1Yi5jb20vZjNhdC9mZWF0
L2Rldl9jYS9jYWluZm8uaHRtbDBEBgNVHR8EPTA7MDmgN6A1hjNodHRwczovL2dp
dGh1Yi5jb20vZjNhdC9mZWF0L2Rldl9jcmwvaXNzdWluZ19jYS5jcmwwggERBgNV
HSAEggEIMIIBBDCBlgYKKwYBBAGB8iQBATCBhzA9BggrBgEFBQcCARYxaHR0cHM6
Ly9naXRodWIuY29tL2YzYXQvZmVhdC9kZXZfY2EvZmVhdF9jcHMuaHRtbDBGBggr
BgEFBQcCAjA6GjhGbHVtb3Rpb24gU2VydmljZXMgUy5BLiBDZXJ0aWZpY2F0aW9u
IFByYWN0aWNlIFN0YXRlbWVudDBpBgorBgEEAYHyJAMCMFswWQYIKwYBBQUHAgIw
TRpLRmx1bW90aW9uIFNlcnZpY2VzIFMuQS4gU2VjdXJlIENvbW11bmljYXRpb25z
IFdlYiBTZXJ2ZXIgQ2VydGlmaWNhdGUgUG9saWN5MA0GCSqGSIb3DQEBBQUAA4IB
AQA18cFTCdBi3sHrNBD4JlV569xeawKXG2NUF0OGprgy1BjRGpd2dwLgfv5JeBbi
1bCgvr68OHy+VGssE/YegJnAf9M9EYT8JY/w7yjGFKhvKkbkQM2OlvJn6KT0dIsr
XFaXbtRQ16QqWBJAQx1hFRyLBD/S2K4fSaCZpYksXrZrGmt/j5K9gVqrmdmRISKv
dS+ajLpiOEOAtxtNQZLCXoDp6ZUvV/s4ut2uNa6ZlGI4Cf1oFedAvCrGdhuAwvMO
Y2dCwXMWooilh98RkiFZTUIHd6fiOL6okCCGgmUqDmLbB34RdFPY+v2Ap7TsQYgi
C/TO/Z56BnQFh3MKXO87c9Qe
-----END CERTIFICATE-----
