Certificate:
    Data:
        Version: 3 (0x2)
        Serial Number:
            63:da:a7:b6:4f:61:4c:00
        Signature Algorithm: sha1WithRSAEncryption
        Issuer: O=Flumotion Services S.A., O=https://github.com/f3at/feat, OU=Feat Core Team, CN=Feat Development Gateway CA/emailAddress=kowalski0123@gmail.com, L=Barcelona, ST=Spain, C=ES
        Validity
            Not Before: Mar 14 11:28:16 2012 GMT
            Not After : Mar 12 11:28:16 2020 GMT
        Subject: O=Flumotion Services S.A., O=https://github.com/f3at/feat, OU=Feat Core Team, CN=*.feat.lan/emailAddress=kowalski0123@gmail.com, L=Barcelona, ST=Spain, C=ES
        Subject Public Key Info:
            Public Key Algorithm: rsaEncryption
            RSA Public Key: (1024 bit)
                Modulus (1024 bit):
                    00:d5:c4:b1:35:db:05:b3:9c:86:b5:01:dc:d5:3d:
                    61:82:3f:8e:11:f5:6c:f1:78:5e:e8:c0:11:de:ec:
                    44:2c:e0:2c:e9:2f:f6:a5:92:b4:30:c8:ec:b6:23:
                    b6:73:cb:aa:e3:5b:07:49:33:a4:ef:3e:d0:6f:3b:
                    45:1d:15:15:d7:03:5c:f2:40:07:c1:2b:a5:05:50:
                    9b:0f:d1:3d:de:a1:f6:38:91:d8:ac:63:61:dd:5b:
                    e7:7e:d1:6e:17:a6:bc:26:b3:85:d2:68:bf:f9:76:
                    2e:58:f3:1d:c5:02:21:56:74:9b:c6:25:cf:8b:66:
                    5a:45:ae:8f:32:6c:71:d7:2b
                Exponent: 65537 (0x10001)
        X509v3 extensions:
            X509v3 Basic Constraints: 
                CA:FALSE
            Netscape Comment: 
                SSL Server Certificate
            X509v3 Key Usage: critical
                Digital Signature, Key Encipherment
            X509v3 Extended Key Usage: 
                TLS Web Server Authentication, TLS Web Client Authentication, Microsoft Server Gated Crypto, Netscape Server Gated Crypto
            Netscape Cert Type: 
                SSL Client, SSL Server
            X509v3 Subject Key Identifier: 
                94:D7:94:C5:B3:BF:AC:91:C4:DA:06:E1:D1:90:D2:74:27:E1:6E:5B
            X509v3 Authority Key Identifier: 
                keyid:EB:1F:C2:B0:2F:06:41:F8:9F:C2:9C:10:96:07:39:51:E0:40:71:EA
                DirName:/O=Flumotion Services S.A./O=https://github.com/f3at/feat/OU=Feat Core Team/CN=Feat Development Root CA/emailAddress=kowalski0123@gmail.com/L=Barcelona/ST=Spain/C=ES
                serial:C7:CB:AD:E7:38:7D:EA:1C

            Authority Information Access: 
                CA Issuers - URI:https://github.com/f3at/feat/dev_ca/cainfo.html

            X509v3 CRL Distribution Points: 
                URI:https://github.com/f3at/feat/dev_crl/issuing_ca.crl

            X509v3 Certificate Policies: 
                Policy: Feat-CPS
                  CPS: https://github.com/f3at/feat/dev_ca/feat_cps.html
                  User Notice:
                    Explicit Text: Flumotion Services S.A. Certification Practice Statement
                Policy: Feat-TLS-WEB-Cert
                  User Notice:
                    Explicit Text: Flumotion Services S.A. Secure Communications Web Server Certificate Policy

    Signature Algorithm: sha1WithRSAEncryption
        a4:34:87:5d:0a:22:b0:c3:ae:f4:80:70:a6:7d:4a:a2:40:1d:
        29:b0:d6:ac:eb:c0:21:aa:08:fd:2f:72:a5:70:ec:a9:80:f1:
        d4:cb:d2:3e:03:ea:01:43:4a:58:b9:70:5d:04:8e:f7:51:0a:
        ab:d6:e3:06:8a:b0:69:1a:fd:3a:e8:36:fe:68:63:6c:ac:ee:
        47:92:cb:ba:43:46:f3:ad:7c:9c:40:78:ca:09:8e:9b:72:de:
        eb:db:5e:d5:97:82:63:1d:ec:9e:07:0d:8f:18:d7:10:58:5d:
        1d:30:6d:c4:ca:a1:5d:f8:ff:07:3e:c5:86:84:6a:5a:b9:ca:
        4f:d3:82:e3:c2:30:c1:6c:97:f1:22:e3:46:38:fb:f1:a3:0e:
        34:e0:68:2a:06:06:b0:bd:7e:c4:c3:5c:9b:a2:3b:d0:b0:1c:
        b3:ad:14:21:86:0a:e2:55:72:51:7a:cf:aa:27:0f:ee:61:a2:
        15:12:6b:01:92:fe:32:d0:92:1e:14:9b:7a:ee:20:a6:d2:1c:
        d2:55:3b:92:49:63:b9:49:24:22:da:6f:04:a9:ad:75:d5:33:
        41:18:3c:65:cb:24:61:97:4c:a1:69:0e:a0:5a:0c:65:c8:27:
        d8:89:b0:5c:8b:6a:94:b2:c5:96:50:78:da:72:cd:5b:50:98:
        b1:4a:da:ec
-----BEGIN CERTIFICATE-----
MIIHHzCCBgegAwIBAgIIY9qntk9hTAAwDQYJKoZIhvcNAQEFBQAwgeAxIDAeBgNV
BAoTF0ZsdW1vdGlvbiBTZXJ2aWNlcyBTLkEuMSUwIwYDVQQKExxodHRwczovL2dp
dGh1Yi5jb20vZjNhdC9mZWF0MRcwFQYDVQQLEw5GZWF0IENvcmUgVGVhbTEkMCIG
A1UEAxMbRmVhdCBEZXZlbG9wbWVudCBHYXRld2F5IENBMSUwIwYJKoZIhvcNAQkB
FhZrb3dhbHNraTAxMjNAZ21haWwuY29tMRIwEAYDVQQHEwlCYXJjZWxvbmExDjAM
BgNVBAgTBVNwYWluMQswCQYDVQQGEwJFUzAeFw0xMjAzMTQxMTI4MTZaFw0yMDAz
MTIxMTI4MTZaMIHPMSAwHgYDVQQKExdGbHVtb3Rpb24gU2VydmljZXMgUy5BLjEl
MCMGA1UEChMcaHR0cHM6Ly9naXRodWIuY29tL2YzYXQvZmVhdDEXMBUGA1UECxMO
RmVhdCBDb3JlIFRlYW0xEzARBgNVBAMUCiouZmVhdC5sYW4xJTAjBgkqhkiG9w0B
CQEWFmtvd2Fsc2tpMDEyM0BnbWFpbC5jb20xEjAQBgNVBAcTCUJhcmNlbG9uYTEO
MAwGA1UECBMFU3BhaW4xCzAJBgNVBAYTAkVTMIGfMA0GCSqGSIb3DQEBAQUAA4GN
ADCBiQKBgQDVxLE12wWznIa1AdzVPWGCP44R9WzxeF7owBHe7EQs4CzpL/alkrQw
yOy2I7Zzy6rjWwdJM6TvPtBvO0UdFRXXA1zyQAfBK6UFUJsP0T3eofY4kdisY2Hd
W+d+0W4Xprwms4XSaL/5di5Y8x3FAiFWdJvGJc+LZlpFro8ybHHXKwIDAQABo4ID
bjCCA2owCQYDVR0TBAIwADAlBglghkgBhvhCAQ0EGBYWU1NMIFNlcnZlciBDZXJ0
aWZpY2F0ZTAOBgNVHQ8BAf8EBAMCBaAwNAYDVR0lBC0wKwYIKwYBBQUHAwEGCCsG
AQUFBwMCBgorBgEEAYI3CgMDBglghkgBhvhCBAEwEQYJYIZIAYb4QgEBBAQDAgbA
MB0GA1UdDgQWBBSU15TFs7+skcTaBuHRkNJ0J+FuWzCCARQGA1UdIwSCAQswggEH
gBTrH8KwLwZB+J/CnBCWBzlR4EBx6qGB46SB4DCB3TEgMB4GA1UEChMXRmx1bW90
aW9uIFNlcnZpY2VzIFMuQS4xJTAjBgNVBAoTHGh0dHBzOi8vZ2l0aHViLmNvbS9m
M2F0L2ZlYXQxFzAVBgNVBAsTDkZlYXQgQ29yZSBUZWFtMSEwHwYDVQQDExhGZWF0
IERldmVsb3BtZW50IFJvb3QgQ0ExJTAjBgkqhkiG9w0BCQEWFmtvd2Fsc2tpMDEy
M0BnbWFpbC5jb20xEjAQBgNVBAcTCUJhcmNlbG9uYTEOMAwGA1UECBMFU3BhaW4x
CzAJBgNVBAYTAkVTggkAx8ut5zh96hwwSwYIKwYBBQUHAQEEPzA9MDsGCCsGAQUF
BzAChi9odHRwczovL2dpdGh1Yi5jb20vZjNhdC9mZWF0L2Rldl9jYS9jYWluZm8u
aHRtbDBEBgNVHR8EPTA7MDmgN6A1hjNodHRwczovL2dpdGh1Yi5jb20vZjNhdC9m
ZWF0L2Rldl9jcmwvaXNzdWluZ19jYS5jcmwwggERBgNVHSAEggEIMIIBBDCBlgYK
KwYBBAGB8iQBATCBhzA9BggrBgEFBQcCARYxaHR0cHM6Ly9naXRodWIuY29tL2Yz
YXQvZmVhdC9kZXZfY2EvZmVhdF9jcHMuaHRtbDBGBggrBgEFBQcCAjA6GjhGbHVt
b3Rpb24gU2VydmljZXMgUy5BLiBDZXJ0aWZpY2F0aW9uIFByYWN0aWNlIFN0YXRl
bWVudDBpBgorBgEEAYHyJAMCMFswWQYIKwYBBQUHAgIwTRpLRmx1bW90aW9uIFNl
cnZpY2VzIFMuQS4gU2VjdXJlIENvbW11bmljYXRpb25zIFdlYiBTZXJ2ZXIgQ2Vy
dGlmaWNhdGUgUG9saWN5MA0GCSqGSIb3DQEBBQUAA4IBAQCkNIddCiKww670gHCm
fUqiQB0psNas68Ahqgj9L3KlcOypgPHUy9I+A+oBQ0pYuXBdBI73UQqr1uMGirBp
Gv066Db+aGNsrO5Hksu6Q0bzrXycQHjKCY6bct7r217Vl4JjHeyeBw2PGNcQWF0d
MG3EyqFd+P8HPsWGhGpaucpP04LjwjDBbJfxIuNGOPvxow404GgqBgawvX7Ew1yb
ojvQsByzrRQhhgriVXJRes+qJw/uYaIVEmsBkv4y0JIeFJt67iCm0hzSVTuSSWO5
SSQi2m8Eqa111TNBGDxlyyRhl0yhaQ6gWgxlyCfYibBci2qUssWWUHjacs1bUJix
Strs
-----END CERTIFICATE-----
