Certificate:
    Data:
        Version: 3 (0x2)
        Serial Number: 46 (0x2e)
        Signature Algorithm: md5WithRSAEncryption
        Issuer: O=NDG, OU=Security, CN=Test CA
        Validity
            Not Before: Oct 11 12:20:00 2011 GMT
            Not After : Oct 10 12:20:00 2012 GMT
        Subject: O=NDG, OU=Security, CN=testuser
        Subject Public Key Info:
            Public Key Algorithm: rsaEncryption
            RSA Public Key: (1024 bit)
                Modulus (1024 bit):
                    00:ea:75:75:8d:ea:61:30:f2:8e:ec:69:cd:9f:ab:
                    49:70:47:f1:ff:4f:68:6e:cb:33:b2:8e:85:e4:15:
                    ab:6a:97:00:fd:de:29:e8:56:15:58:08:f7:0b:e9:
                    02:c9:ba:9a:d2:f0:72:5b:ba:30:26:71:9f:cc:70:
                    f2:ce:91:82:f9:c5:0a:21:03:07:54:5c:e4:0f:bd:
                    62:18:71:eb:29:1d:6d:07:29:87:da:f3:ad:da:cc:
                    54:f2:67:89:d1:76:9d:12:1c:5f:d0:fd:9c:ab:a3:
                    16:ef:57:2f:b1:99:9b:bd:4a:e4:29:22:d0:8c:97:
                    f9:04:97:9d:1e:d3:18:9d:f1
                Exponent: 65537 (0x10001)
        X509v3 extensions:
            Netscape Cert Type: 
                SSL Client, SSL Server, S/MIME, Object Signing
    Signature Algorithm: md5WithRSAEncryption
        0d:4e:ce:4e:b4:c6:1f:dd:0c:a8:5f:81:e5:31:09:24:4a:54:
        10:30:cd:a8:fc:1f:27:a6:fe:ee:3b:b1:6c:f4:f2:cf:21:2b:
        d6:2f:91:88:14:db:5b:1f:1e:68:8d:a0:f7:3f:fe:0f:fa:e0:
        55:ee:48:f6:31:3b:1d:fc:cd:96:38:83:2e:c2:7a:ef:ce:66:
        61:a8:42:d0:58:6f:77:37:53:e6:0c:93:44:d3:09:09:c8:7d:
        b0:7b:c1:8d:d4:57:2e:b7:1c:4b:a7:ca:ac:eb:1c:5d:77:10:
        bf:d0:e4:07:7e:5f:43:af:0c:20:9c:b0:f5:75:d5:8f:9d:5b:
        24:41
-----BEGIN CERTIFICATE-----
MIIB8jCCAVugAwIBAgIBLjANBgkqhkiG9w0BAQQFADAzMQwwCgYDVQQKEwNOREcx
ETAPBgNVBAsTCFNlY3VyaXR5MRAwDgYDVQQDEwdUZXN0IENBMB4XDTExMTAxMTEy
MjAwMFoXDTEyMTAxMDEyMjAwMFowNDEMMAoGA1UEChMDTkRHMREwDwYDVQQLEwhT
ZWN1cml0eTERMA8GA1UEAxMIdGVzdHVzZXIwgZ8wDQYJKoZIhvcNAQEBBQADgY0A
MIGJAoGBAOp1dY3qYTDyjuxpzZ+rSXBH8f9PaG7LM7KOheQVq2qXAP3eKehWFVgI
9wvpAsm6mtLwclu6MCZxn8xw8s6RgvnFCiEDB1Rc5A+9Yhhx6ykdbQcph9rzrdrM
VPJnidF2nRIcX9D9nKujFu9XL7GZm71K5Cki0IyX+QSXnR7TGJ3xAgMBAAGjFTAT
MBEGCWCGSAGG+EIBAQQEAwIE8DANBgkqhkiG9w0BAQQFAAOBgQANTs5OtMYf3Qyo
X4HlMQkkSlQQMM2o/B8npv7uO7Fs9PLPISvWL5GIFNtbHx5ojaD3P/4P+uBV7kj2
MTsd/M2WOIMuwnrvzmZhqELQWG93N1PmDJNE0wkJyH2we8GN1FcutxxLp8qs6xxd
dxC/0OQHfl9DrwwgnLD1ddWPnVskQQ==
-----END CERTIFICATE-----
