(dp0
S'dineshappavoo'
p1
(iUser
User
p2
(dp3
S'email_address'
p4
S'dinesha.cit@gmail.com'
p5
sS'repo_name'
p6
S'apl-projects'
p7
sbsS'maximus11'
p8
(iUser
User
p9
(dp10
g4
S'Rahul.1186@gmail.com'
p11
sg6
S'db_libraryApp'
p12
sbs.