Certificate:
    Data:
        Version: 3 (0x2)
        Serial Number:
            c7:cb:ad:e7:38:7d:ea:1c
        Signature Algorithm: sha1WithRSAEncryption
        Issuer: O=Flumotion Services S.A., O=https://github.com/f3at/feat, OU=Feat Core Team, CN=Feat Development Root CA/emailAddress=kowalski0123@gmail.com, L=Barcelona, ST=Spain, C=ES
        Validity
            Not Before: Mar 14 11:28:12 2012 GMT
            Not After : Mar 12 11:28:12 2020 GMT
        Subject: O=Flumotion Services S.A., O=https://github.com/f3at/feat, OU=Feat Core Team, CN=Feat Development Gateway CA/emailAddress=kowalski0123@gmail.com, L=Barcelona, ST=Spain, C=ES
        Subject Public Key Info:
            Public Key Algorithm: rsaEncryption
            RSA Public Key: (2048 bit)
                Modulus (2048 bit):
                    00:ae:f8:00:19:c8:81:cb:ca:6a:26:62:5b:77:4a:
                    0f:75:d2:ab:41:b0:3b:f6:a7:86:97:d0:5f:94:c3:
                    b8:eb:f5:82:e9:9a:a1:99:78:8c:bf:04:20:98:ad:
                    9c:b9:69:ab:2c:d0:43:af:ab:77:b7:da:19:82:95:
                    49:10:68:5c:96:90:d5:79:42:d6:31:62:cf:c5:d3:
                    67:7a:e8:c9:b4:3f:5b:8b:10:85:0f:b9:92:1e:dd:
                    50:a7:2a:b5:9d:b5:5e:d9:5c:64:e1:a6:b4:c9:df:
                    45:e7:21:12:0e:7b:2f:d3:b7:a5:9c:5f:3a:bd:6a:
                    b5:40:93:f7:ba:97:05:c7:75:18:67:0c:95:c5:8e:
                    70:d7:8a:18:f9:85:64:a5:27:d8:50:20:16:00:8d:
                    5d:a7:a2:9f:00:e6:a6:6f:4c:19:2a:e4:43:d2:87:
                    d0:49:82:a9:2b:0c:49:99:90:45:c8:d4:52:f8:42:
                    bd:06:67:f1:09:c2:e4:69:69:26:7e:e2:a1:22:96:
                    65:4b:89:25:46:b0:8f:8b:ae:dd:6d:6a:45:60:b6:
                    c2:e6:d0:15:27:fe:f3:10:51:b1:a8:aa:7a:f5:d1:
                    3a:c6:e9:9b:60:f8:28:e2:90:32:ad:ea:19:ab:b8:
                    6f:c6:a9:9c:49:2d:80:69:aa:a1:3b:38:e0:3b:21:
                    c3:1b
                Exponent: 65537 (0x10001)
        X509v3 extensions:
            X509v3 Basic Constraints: 
                CA:TRUE
            X509v3 Key Usage: critical
                Certificate Sign, CRL Sign
            X509v3 Subject Key Identifier: 
                EB:1F:C2:B0:2F:06:41:F8:9F:C2:9C:10:96:07:39:51:E0:40:71:EA
            X509v3 Authority Key Identifier: 
                keyid:20:86:90:FC:C8:6D:2A:D5:4F:93:06:9B:31:40:29:30:27:4A:02:08

            Authority Information Access: 
                CA Issuers - URI:https://github.com/f3at/feat/dev_ca/cainfo.html

            X509v3 CRL Distribution Points: 
                URI:https://github.com/f3at/feat/dev_crl/root_ca.crl

            X509v3 Certificate Policies: 
                Policy: Feat-CPS
                  CPS: https://github.com/f3at/feat/dev_ca/feat_cps.html
                  User Notice:
                    Explicit Text: Flumotion Services S.A. Development Certification Practice Statement
                Policy: Feat-CA-Cert
                  User Notice:
                    Explicit Text: Flumotion Services S.A. Development CA Certificate Policy

    Signature Algorithm: sha1WithRSAEncryption
        0b:77:99:dd:87:6e:a1:67:4e:8b:38:18:3a:c8:cf:b4:56:f6:
        49:fc:f6:a2:08:bf:12:12:9c:ee:cc:dc:06:1a:f9:37:ce:e8:
        f1:3a:33:4b:ea:92:ca:ba:80:f4:63:fe:7f:d3:97:d1:a8:71:
        ed:4f:57:e6:4f:8f:a9:7c:79:42:22:e4:80:b6:3b:a9:0c:65:
        81:52:e0:ae:bb:65:d3:5f:64:80:ed:40:a8:ed:37:a8:7b:ec:
        12:c8:5a:f0:1a:0b:09:de:16:12:cd:80:9e:36:49:b5:19:bb:
        b2:3e:d2:9c:f5:03:0d:d1:5c:31:ad:ba:6e:ff:68:20:13:cc:
        17:1d:27:ad:2c:66:3f:4f:88:f7:a5:d3:22:f1:a6:9a:b1:af:
        23:3e:54:55:9e:6f:4b:3f:c6:95:f7:42:94:0c:fa:0f:d4:bf:
        74:ac:a9:38:8e:4d:39:e9:f7:66:4a:09:cf:ac:14:e5:38:10:
        79:90:41:e5:46:3a:cc:40:7c:ff:f7:02:6f:85:43:6a:7a:91:
        e1:bb:b6:43:5b:9a:4d:56:2f:c7:3a:cc:97:24:11:db:29:40:
        52:84:14:f7:e3:ad:76:2e:ad:78:91:52:87:80:3f:e9:7f:4e:
        c8:24:b6:a3:1e:9b:08:af:8a:da:b8:80:a2:3f:6c:05:4c:ca:
        09:8c:83:13
-----BEGIN CERTIFICATE-----
MIIGRDCCBSygAwIBAgIJAMfLrec4feocMA0GCSqGSIb3DQEBBQUAMIHdMSAwHgYD
VQQKExdGbHVtb3Rpb24gU2VydmljZXMgUy5BLjElMCMGA1UEChMcaHR0cHM6Ly9n
aXRodWIuY29tL2YzYXQvZmVhdDEXMBUGA1UECxMORmVhdCBDb3JlIFRlYW0xITAf
BgNVBAMTGEZlYXQgRGV2ZWxvcG1lbnQgUm9vdCBDQTElMCMGCSqGSIb3DQEJARYW
a293YWxza2kwMTIzQGdtYWlsLmNvbTESMBAGA1UEBxMJQmFyY2Vsb25hMQ4wDAYD
VQQIEwVTcGFpbjELMAkGA1UEBhMCRVMwHhcNMTIwMzE0MTEyODEyWhcNMjAwMzEy
MTEyODEyWjCB4DEgMB4GA1UEChMXRmx1bW90aW9uIFNlcnZpY2VzIFMuQS4xJTAj
BgNVBAoTHGh0dHBzOi8vZ2l0aHViLmNvbS9mM2F0L2ZlYXQxFzAVBgNVBAsTDkZl
YXQgQ29yZSBUZWFtMSQwIgYDVQQDExtGZWF0IERldmVsb3BtZW50IEdhdGV3YXkg
Q0ExJTAjBgkqhkiG9w0BCQEWFmtvd2Fsc2tpMDEyM0BnbWFpbC5jb20xEjAQBgNV
BAcTCUJhcmNlbG9uYTEOMAwGA1UECBMFU3BhaW4xCzAJBgNVBAYTAkVTMIIBIjAN
BgkqhkiG9w0BAQEFAAOCAQ8AMIIBCgKCAQEArvgAGciBy8pqJmJbd0oPddKrQbA7
9qeGl9BflMO46/WC6ZqhmXiMvwQgmK2cuWmrLNBDr6t3t9oZgpVJEGhclpDVeULW
MWLPxdNneujJtD9bixCFD7mSHt1Qpyq1nbVe2Vxk4aa0yd9F5yESDnsv07elnF86
vWq1QJP3upcFx3UYZwyVxY5w14oY+YVkpSfYUCAWAI1dp6KfAOamb0wZKuRD0ofQ
SYKpKwxJmZBFyNRS+EK9BmfxCcLkaWkmfuKhIpZlS4klRrCPi67dbWpFYLbC5tAV
J/7zEFGxqKp69dE6xumbYPgo4pAyreoZq7hvxqmcSS2AaaqhOzjgOyHDGwIDAQAB
o4ICADCCAfwwDAYDVR0TBAUwAwEB/zAOBgNVHQ8BAf8EBAMCAQYwHQYDVR0OBBYE
FOsfwrAvBkH4n8KcEJYHOVHgQHHqMB8GA1UdIwQYMBaAFCCGkPzIbSrVT5MGmzFA
KTAnSgIIMEsGCCsGAQUFBwEBBD8wPTA7BggrBgEFBQcwAoYvaHR0cHM6Ly9naXRo
dWIuY29tL2YzYXQvZmVhdC9kZXZfY2EvY2FpbmZvLmh0bWwwQQYDVR0fBDowODA2
oDSgMoYwaHR0cHM6Ly9naXRodWIuY29tL2YzYXQvZmVhdC9kZXZfY3JsL3Jvb3Rf
Y2EuY3JsMIIBCgYDVR0gBIIBATCB/jCBogYKKwYBBAGB8iQBATCBkzA9BggrBgEF
BQcCARYxaHR0cHM6Ly9naXRodWIuY29tL2YzYXQvZmVhdC9kZXZfY2EvZmVhdF9j
cHMuaHRtbDBSBggrBgEFBQcCAjBGGkRGbHVtb3Rpb24gU2VydmljZXMgUy5BLiBE
ZXZlbG9wbWVudCBDZXJ0aWZpY2F0aW9uIFByYWN0aWNlIFN0YXRlbWVudDBXBgor
BgEEAYHyJAECMEkwRwYIKwYBBQUHAgIwOxo5Rmx1bW90aW9uIFNlcnZpY2VzIFMu
QS4gRGV2ZWxvcG1lbnQgQ0EgQ2VydGlmaWNhdGUgUG9saWN5MA0GCSqGSIb3DQEB
BQUAA4IBAQALd5ndh26hZ06LOBg6yM+0VvZJ/PaiCL8SEpzuzNwGGvk3zujxOjNL
6pLKuoD0Y/5/05fRqHHtT1fmT4+pfHlCIuSAtjupDGWBUuCuu2XTX2SA7UCo7Teo
e+wSyFrwGgsJ3hYSzYCeNkm1GbuyPtKc9QMN0Vwxrbpu/2ggE8wXHSetLGY/T4j3
pdMi8aaasa8jPlRVnm9LP8aV90KUDPoP1L90rKk4jk056fdmSgnPrBTlOBB5kEHl
RjrMQHz/9wJvhUNqepHhu7ZDW5pNVi/HOsyXJBHbKUBShBT34612Lq14kVKHgD/p
f07IJLajHpsIr4rauICiP2wFTMoJjIMT
-----END CERTIFICATE-----
