Certificate:
    Data:
        Version: 3 (0x2)
        Serial Number:
            c7:cb:ad:e7:38:7d:ea:1a
        Signature Algorithm: sha1WithRSAEncryption
        Issuer: O=Flumotion Services S.A., O=https://github.com/f3at/feat, OU=Feat Core Team, CN=Feat Development Root CA/emailAddress=kowalski0123@gmail.com, L=Barcelona, ST=Spain, C=ES
        Validity
            Not Before: Mar 14 11:27:38 2012 GMT
            Not After : Mar 10 11:27:38 2028 GMT
        Subject: O=Flumotion Services S.A., O=https://github.com/f3at/feat, OU=Feat Core Team, CN=Feat Development Root CA/emailAddress=kowalski0123@gmail.com, L=Barcelona, ST=Spain, C=ES
        Subject Public Key Info:
            Public Key Algorithm: rsaEncryption
            RSA Public Key: (2048 bit)
                Modulus (2048 bit):
                    00:c5:06:82:53:74:6b:43:3e:17:ff:e4:d6:2e:65:
                    17:11:5f:53:b3:56:0d:29:7c:0d:f4:c4:87:c7:26:
                    88:9d:7d:3a:df:19:c1:18:d1:46:b9:08:44:b0:69:
                    70:8e:2c:53:e9:c7:7b:22:1a:b3:2b:1f:e8:7b:a1:
                    b7:1c:f0:6f:bd:31:9c:96:5c:b8:60:a6:2b:52:d4:
                    fb:2a:58:de:97:4e:e6:e9:50:52:0a:ab:0f:e4:6e:
                    72:aa:2e:f0:23:e6:85:cc:0f:de:e6:5d:85:97:27:
                    77:f6:b5:a1:a2:0c:2d:50:97:95:e3:f8:2d:74:56:
                    be:e7:f9:2c:86:fe:5d:39:68:ef:bf:3e:50:36:2f:
                    49:6b:d1:9b:74:fd:b4:1c:49:18:6c:78:85:2c:22:
                    ee:7b:9f:ec:fb:c6:12:87:31:ce:23:9e:ca:08:c9:
                    d6:fe:51:03:c9:d6:5d:7b:d6:f4:10:b4:7c:f3:98:
                    86:b4:3e:c5:65:39:e7:6a:a0:95:0d:7d:bc:2e:35:
                    73:d6:ca:43:7d:00:6d:70:44:a9:1c:91:69:aa:c2:
                    9c:16:af:b2:70:4d:23:a5:29:25:ba:63:97:b0:3c:
                    31:d4:45:08:d0:5c:14:13:8c:c9:69:fb:a7:72:06:
                    d7:04:23:52:05:92:15:1a:76:b4:f6:eb:d2:23:4d:
                    52:3d
                Exponent: 65537 (0x10001)
        X509v3 extensions:
            X509v3 Basic Constraints: 
                CA:TRUE
            X509v3 Key Usage: critical
                Certificate Sign, CRL Sign
            X509v3 Subject Key Identifier: 
                20:86:90:FC:C8:6D:2A:D5:4F:93:06:9B:31:40:29:30:27:4A:02:08
            X509v3 Authority Key Identifier: 
                keyid:20:86:90:FC:C8:6D:2A:D5:4F:93:06:9B:31:40:29:30:27:4A:02:08
                DirName:/O=Flumotion Services S.A./O=https://github.com/f3at/feat/OU=Feat Core Team/CN=Feat Development Root CA/emailAddress=kowalski0123@gmail.com/L=Barcelona/ST=Spain/C=ES
                serial:C7:CB:AD:E7:38:7D:EA:1A

            Authority Information Access: 
                CA Issuers - URI:https://github.com/f3at/feat/dev_ca/cainfo.html

            X509v3 CRL Distribution Points: 
                URI:https://github.com/f3at/feat/dev_crl/root_ca.crl

            X509v3 Certificate Policies: 
                Policy: Feat-CPS
                  CPS: https://github.com/f3at/feat/dev_ca/feat_cps.html
                  User Notice:
                    Explicit Text: Flumotion Services S.A. Development Certification Practice Statement

    Signature Algorithm: sha1WithRSAEncryption
        72:f4:8e:55:50:b6:ee:a6:46:b7:9a:fe:cc:f7:ff:fa:67:8c:
        d0:d9:10:65:ed:77:b7:76:79:4f:68:bc:84:77:1e:a1:7a:4f:
        05:5e:46:d3:59:50:88:8f:58:32:df:cb:3f:c0:3b:48:c8:64:
        a0:82:b2:e1:1b:62:01:ae:46:97:ce:a8:3f:59:57:8b:02:04:
        ae:fd:20:60:b2:37:74:94:3c:b6:6e:12:de:72:3b:37:bc:71:
        26:15:70:c1:b4:8e:74:31:15:61:38:2a:5f:90:af:53:14:b1:
        81:cc:9d:28:0f:03:94:b5:83:35:86:91:d8:0b:29:aa:09:7e:
        5b:cf:53:f0:ee:dc:6c:7e:57:5f:8c:2e:6d:82:9e:c3:06:78:
        af:c7:b0:1f:43:40:12:d7:51:a5:bd:f5:74:8f:fd:df:6e:77:
        5c:12:62:fa:25:83:ca:bf:09:a6:55:4f:19:45:3a:0f:89:61:
        2c:ec:5b:5a:81:53:f0:26:e0:dd:c8:4d:c1:9d:8e:bc:85:e6:
        07:5e:57:b7:3a:19:87:ad:a5:5f:fd:86:76:d2:c4:dd:c0:99:
        99:77:41:ed:c0:02:3d:a1:87:b2:7c:91:9c:bc:f5:86:0c:14:
        f3:8c:31:ac:4f:58:22:11:89:84:3f:a7:b5:7f:94:0e:a8:a4:
        1c:8a:58:2e
-----BEGIN CERTIFICATE-----
MIIG3TCCBcWgAwIBAgIJAMfLrec4feoaMA0GCSqGSIb3DQEBBQUAMIHdMSAwHgYD
VQQKExdGbHVtb3Rpb24gU2VydmljZXMgUy5BLjElMCMGA1UEChMcaHR0cHM6Ly9n
aXRodWIuY29tL2YzYXQvZmVhdDEXMBUGA1UECxMORmVhdCBDb3JlIFRlYW0xITAf
BgNVBAMTGEZlYXQgRGV2ZWxvcG1lbnQgUm9vdCBDQTElMCMGCSqGSIb3DQEJARYW
a293YWxza2kwMTIzQGdtYWlsLmNvbTESMBAGA1UEBxMJQmFyY2Vsb25hMQ4wDAYD
VQQIEwVTcGFpbjELMAkGA1UEBhMCRVMwHhcNMTIwMzE0MTEyNzM4WhcNMjgwMzEw
MTEyNzM4WjCB3TEgMB4GA1UEChMXRmx1bW90aW9uIFNlcnZpY2VzIFMuQS4xJTAj
BgNVBAoTHGh0dHBzOi8vZ2l0aHViLmNvbS9mM2F0L2ZlYXQxFzAVBgNVBAsTDkZl
YXQgQ29yZSBUZWFtMSEwHwYDVQQDExhGZWF0IERldmVsb3BtZW50IFJvb3QgQ0Ex
JTAjBgkqhkiG9w0BCQEWFmtvd2Fsc2tpMDEyM0BnbWFpbC5jb20xEjAQBgNVBAcT
CUJhcmNlbG9uYTEOMAwGA1UECBMFU3BhaW4xCzAJBgNVBAYTAkVTMIIBIjANBgkq
hkiG9w0BAQEFAAOCAQ8AMIIBCgKCAQEAxQaCU3RrQz4X/+TWLmUXEV9Ts1YNKXwN
9MSHxyaInX063xnBGNFGuQhEsGlwjixT6cd7IhqzKx/oe6G3HPBvvTGclly4YKYr
UtT7Kljel07m6VBSCqsP5G5yqi7wI+aFzA/e5l2Flyd39rWhogwtUJeV4/gtdFa+
5/kshv5dOWjvvz5QNi9Ja9GbdP20HEkYbHiFLCLue5/s+8YShzHOI57KCMnW/lED
ydZde9b0ELR885iGtD7FZTnnaqCVDX28LjVz1spDfQBtcESpHJFpqsKcFq+ycE0j
pSklumOXsDwx1EUI0FwUE4zJafuncgbXBCNSBZIVGna09uvSI01SPQIDAQABo4IC
nDCCApgwDAYDVR0TBAUwAwEB/zAOBgNVHQ8BAf8EBAMCAQYwHQYDVR0OBBYEFCCG
kPzIbSrVT5MGmzFAKTAnSgIIMIIBFAYDVR0jBIIBCzCCAQeAFCCGkPzIbSrVT5MG
mzFAKTAnSgIIoYHjpIHgMIHdMSAwHgYDVQQKExdGbHVtb3Rpb24gU2VydmljZXMg
Uy5BLjElMCMGA1UEChMcaHR0cHM6Ly9naXRodWIuY29tL2YzYXQvZmVhdDEXMBUG
A1UECxMORmVhdCBDb3JlIFRlYW0xITAfBgNVBAMTGEZlYXQgRGV2ZWxvcG1lbnQg
Um9vdCBDQTElMCMGCSqGSIb3DQEJARYWa293YWxza2kwMTIzQGdtYWlsLmNvbTES
MBAGA1UEBxMJQmFyY2Vsb25hMQ4wDAYDVQQIEwVTcGFpbjELMAkGA1UEBhMCRVOC
CQDHy63nOH3qGjBLBggrBgEFBQcBAQQ/MD0wOwYIKwYBBQUHMAKGL2h0dHBzOi8v
Z2l0aHViLmNvbS9mM2F0L2ZlYXQvZGV2X2NhL2NhaW5mby5odG1sMEEGA1UdHwQ6
MDgwNqA0oDKGMGh0dHBzOi8vZ2l0aHViLmNvbS9mM2F0L2ZlYXQvZGV2X2NybC9y
b290X2NhLmNybDCBsAYDVR0gBIGoMIGlMIGiBgorBgEEAYHyJAEBMIGTMD0GCCsG
AQUFBwIBFjFodHRwczovL2dpdGh1Yi5jb20vZjNhdC9mZWF0L2Rldl9jYS9mZWF0
X2Nwcy5odG1sMFIGCCsGAQUFBwICMEYaREZsdW1vdGlvbiBTZXJ2aWNlcyBTLkEu
IERldmVsb3BtZW50IENlcnRpZmljYXRpb24gUHJhY3RpY2UgU3RhdGVtZW50MA0G
CSqGSIb3DQEBBQUAA4IBAQBy9I5VULbupka3mv7M9//6Z4zQ2RBl7Xe3dnlPaLyE
dx6hek8FXkbTWVCIj1gy38s/wDtIyGSggrLhG2IBrkaXzqg/WVeLAgSu/SBgsjd0
lDy2bhLecjs3vHEmFXDBtI50MRVhOCpfkK9TFLGBzJ0oDwOUtYM1hpHYCymqCX5b
z1Pw7txsfldfjC5tgp7DBnivx7AfQ0AS11GlvfV0j/3fbndcEmL6JYPKvwmmVU8Z
RToPiWEs7FtagVPwJuDdyE3BnY68heYHXle3OhmHraVf/YZ20sTdwJmZd0HtwAI9
oYeyfJGcvPWGDBTzjDGsT1giEYmEP6e1f5QOqKQcilgu
-----END CERTIFICATE-----
Certificate:
    Data:
        Version: 3 (0x2)
        Serial Number:
            c7:cb:ad:e7:38:7d:ea:1b
        Signature Algorithm: sha1WithRSAEncryption
        Issuer: O=Flumotion Services S.A., O=https://github.com/f3at/feat, OU=Feat Core Team, CN=Feat Development Root CA/emailAddress=kowalski0123@gmail.com, L=Barcelona, ST=Spain, C=ES
        Validity
            Not Before: Mar 14 11:27:43 2012 GMT
            Not After : Mar 12 11:27:43 2020 GMT
        Subject: O=Flumotion Services S.A., O=https://github.com/f3at/feat, OU=Feat Core Team, CN=Feat Development Tunneling CA/emailAddress=kowalski0123@gmail.com, L=Barcelona, ST=Spain, C=ES
        Subject Public Key Info:
            Public Key Algorithm: rsaEncryption
            RSA Public Key: (2048 bit)
                Modulus (2048 bit):
                    00:b7:6c:8a:7f:d8:6f:64:be:19:c4:56:09:54:d4:
                    91:08:33:89:2a:44:fe:9b:e6:d6:38:d2:e5:7d:6c:
                    f7:db:5f:55:68:24:a2:6d:f0:ce:5c:98:c3:3b:c8:
                    22:56:52:e0:9f:8d:e8:e1:54:4c:5d:71:25:3f:7f:
                    9a:d8:42:a5:a0:c1:a7:b4:6e:78:63:7b:3b:9e:6a:
                    9a:67:c9:07:84:21:c7:01:7a:0e:c1:5c:f5:42:0d:
                    a0:ac:2b:e2:1a:0a:fa:5c:1e:06:25:92:0c:0c:87:
                    63:13:81:b1:cc:09:a7:18:a8:cc:dd:33:d2:c8:d7:
                    16:7b:2f:2b:f6:04:7f:df:ef:46:11:d7:a0:bd:8b:
                    61:bc:71:84:68:73:2a:d8:d4:93:bd:d0:d8:87:99:
                    cc:03:de:9e:af:2b:b6:1b:98:f3:72:77:5f:04:55:
                    d5:fc:52:e1:1c:c9:90:27:52:d1:ae:c4:a2:f1:11:
                    46:17:4f:17:53:a2:0f:40:85:99:a0:55:5b:c3:2b:
                    10:90:85:db:89:01:5f:f9:19:68:4b:4c:a2:2c:fe:
                    97:ed:52:3e:b5:6c:f1:7d:fa:3d:92:0a:3a:96:0d:
                    bd:bf:eb:cc:cb:36:cb:f4:4f:b1:64:40:05:63:5e:
                    aa:7a:f7:b9:8f:fb:d6:ad:a0:34:76:be:42:28:82:
                    64:c3
                Exponent: 65537 (0x10001)
        X509v3 extensions:
            X509v3 Basic Constraints: 
                CA:TRUE
            X509v3 Key Usage: critical
                Certificate Sign, CRL Sign
            X509v3 Subject Key Identifier: 
                28:39:60:5C:AB:84:C7:C3:A3:BF:3D:2F:5C:2D:78:8D:29:FA:B2:7C
            X509v3 Authority Key Identifier: 
                keyid:20:86:90:FC:C8:6D:2A:D5:4F:93:06:9B:31:40:29:30:27:4A:02:08

            Authority Information Access: 
                CA Issuers - URI:https://github.com/f3at/feat/dev_ca/cainfo.html

            X509v3 CRL Distribution Points: 
                URI:https://github.com/f3at/feat/dev_crl/root_ca.crl

            X509v3 Certificate Policies: 
                Policy: Feat-CPS
                  CPS: https://github.com/f3at/feat/dev_ca/feat_cps.html
                  User Notice:
                    Explicit Text: Flumotion Services S.A. Development Certification Practice Statement
                Policy: Feat-CA-Cert
                  User Notice:
                    Explicit Text: Flumotion Services S.A. Development CA Certificate Policy

    Signature Algorithm: sha1WithRSAEncryption
        14:53:27:5b:08:1a:2c:8e:15:b1:74:af:98:c4:0d:eb:61:56:
        a6:7b:73:a2:97:ee:44:8c:d6:5b:32:3d:61:49:10:f1:af:82:
        5b:32:e1:7d:6d:dd:34:24:8e:ac:f8:d7:7b:31:d2:f4:ce:ec:
        34:7b:de:a1:72:c8:5f:97:41:77:12:9c:2f:f4:b0:0e:91:88:
        e6:62:88:34:b4:a9:f9:e6:16:95:78:e7:f3:71:a2:ec:2d:1f:
        75:a3:70:b2:07:82:2e:af:6c:54:5c:21:42:e8:3e:fa:52:6d:
        34:ff:de:69:bd:50:1a:35:c5:4f:09:02:4a:fa:ca:ba:f1:49:
        7a:f9:a8:6c:28:30:4d:5b:9e:ba:f0:98:3a:a2:c6:b0:02:6b:
        09:73:17:d4:ce:0a:c3:1e:34:e7:5c:2c:26:b3:55:42:0a:43:
        b8:d0:f5:b1:45:6a:03:b6:c2:2c:f6:64:2b:42:6d:e9:a0:6a:
        46:c2:95:e5:ae:74:3c:f3:b3:eb:0f:9b:07:d2:65:f5:66:4b:
        8f:68:86:db:d5:5e:56:66:dc:85:66:f3:74:ba:c9:57:31:59:
        ab:1b:2a:b4:b9:c3:63:b5:bf:76:97:c7:df:74:da:4e:2b:6c:
        e4:c7:0f:c7:17:93:18:e8:78:55:4e:9b:4c:a4:ba:b6:92:64:
        38:1a:0a:c6
-----BEGIN CERTIFICATE-----
MIIGRjCCBS6gAwIBAgIJAMfLrec4feobMA0GCSqGSIb3DQEBBQUAMIHdMSAwHgYD
VQQKExdGbHVtb3Rpb24gU2VydmljZXMgUy5BLjElMCMGA1UEChMcaHR0cHM6Ly9n
aXRodWIuY29tL2YzYXQvZmVhdDEXMBUGA1UECxMORmVhdCBDb3JlIFRlYW0xITAf
BgNVBAMTGEZlYXQgRGV2ZWxvcG1lbnQgUm9vdCBDQTElMCMGCSqGSIb3DQEJARYW
a293YWxza2kwMTIzQGdtYWlsLmNvbTESMBAGA1UEBxMJQmFyY2Vsb25hMQ4wDAYD
VQQIEwVTcGFpbjELMAkGA1UEBhMCRVMwHhcNMTIwMzE0MTEyNzQzWhcNMjAwMzEy
MTEyNzQzWjCB4jEgMB4GA1UEChMXRmx1bW90aW9uIFNlcnZpY2VzIFMuQS4xJTAj
BgNVBAoTHGh0dHBzOi8vZ2l0aHViLmNvbS9mM2F0L2ZlYXQxFzAVBgNVBAsTDkZl
YXQgQ29yZSBUZWFtMSYwJAYDVQQDEx1GZWF0IERldmVsb3BtZW50IFR1bm5lbGlu
ZyBDQTElMCMGCSqGSIb3DQEJARYWa293YWxza2kwMTIzQGdtYWlsLmNvbTESMBAG
A1UEBxMJQmFyY2Vsb25hMQ4wDAYDVQQIEwVTcGFpbjELMAkGA1UEBhMCRVMwggEi
MA0GCSqGSIb3DQEBAQUAA4IBDwAwggEKAoIBAQC3bIp/2G9kvhnEVglU1JEIM4kq
RP6b5tY40uV9bPfbX1VoJKJt8M5cmMM7yCJWUuCfjejhVExdcSU/f5rYQqWgwae0
bnhjezueappnyQeEIccBeg7BXPVCDaCsK+IaCvpcHgYlkgwMh2MTgbHMCacYqMzd
M9LI1xZ7Lyv2BH/f70YR16C9i2G8cYRocyrY1JO90NiHmcwD3p6vK7YbmPNyd18E
VdX8UuEcyZAnUtGuxKLxEUYXTxdTog9AhZmgVVvDKxCQhduJAV/5GWhLTKIs/pft
Uj61bPF9+j2SCjqWDb2/68zLNsv0T7FkQAVjXqp697mP+9atoDR2vkIogmTDAgMB
AAGjggIAMIIB/DAMBgNVHRMEBTADAQH/MA4GA1UdDwEB/wQEAwIBBjAdBgNVHQ4E
FgQUKDlgXKuEx8Ojvz0vXC14jSn6snwwHwYDVR0jBBgwFoAUIIaQ/MhtKtVPkwab
MUApMCdKAggwSwYIKwYBBQUHAQEEPzA9MDsGCCsGAQUFBzAChi9odHRwczovL2dp
dGh1Yi5jb20vZjNhdC9mZWF0L2Rldl9jYS9jYWluZm8uaHRtbDBBBgNVHR8EOjA4
MDagNKAyhjBodHRwczovL2dpdGh1Yi5jb20vZjNhdC9mZWF0L2Rldl9jcmwvcm9v
dF9jYS5jcmwwggEKBgNVHSAEggEBMIH+MIGiBgorBgEEAYHyJAEBMIGTMD0GCCsG
AQUFBwIBFjFodHRwczovL2dpdGh1Yi5jb20vZjNhdC9mZWF0L2Rldl9jYS9mZWF0
X2Nwcy5odG1sMFIGCCsGAQUFBwICMEYaREZsdW1vdGlvbiBTZXJ2aWNlcyBTLkEu
IERldmVsb3BtZW50IENlcnRpZmljYXRpb24gUHJhY3RpY2UgU3RhdGVtZW50MFcG
CisGAQQBgfIkAQIwSTBHBggrBgEFBQcCAjA7GjlGbHVtb3Rpb24gU2VydmljZXMg
Uy5BLiBEZXZlbG9wbWVudCBDQSBDZXJ0aWZpY2F0ZSBQb2xpY3kwDQYJKoZIhvcN
AQEFBQADggEBABRTJ1sIGiyOFbF0r5jEDethVqZ7c6KX7kSM1lsyPWFJEPGvglsy
4X1t3TQkjqz413sx0vTO7DR73qFyyF+XQXcSnC/0sA6RiOZiiDS0qfnmFpV45/Nx
ouwtH3WjcLIHgi6vbFRcIULoPvpSbTT/3mm9UBo1xU8JAkr6yrrxSXr5qGwoME1b
nrrwmDqixrACawlzF9TOCsMeNOdcLCazVUIKQ7jQ9bFFagO2wiz2ZCtCbemgakbC
leWudDzzs+sPmwfSZfVmS49ohtvVXlZm3IVm83S6yVcxWasbKrS5w2O1v3aXx990
2k4rbOTHD8cXkxjoeFVOm0ykuraSZDgaCsY=
-----END CERTIFICATE-----
