Certificate:
    Data:
        Version: 3 (0x2)
        Serial Number:
            c7:cb:ad:e7:38:7d:ea:1b
        Signature Algorithm: sha1WithRSAEncryption
        Issuer: O=Flumotion Services S.A., O=https://github.com/f3at/feat, OU=Feat Core Team, CN=Feat Development Root CA/emailAddress=kowalski0123@gmail.com, L=Barcelona, ST=Spain, C=ES
        Validity
            Not Before: Mar 14 11:27:43 2012 GMT
            Not After : Mar 12 11:27:43 2020 GMT
        Subject: O=Flumotion Services S.A., O=https://github.com/f3at/feat, OU=Feat Core Team, CN=Feat Development Tunneling CA/emailAddress=kowalski0123@gmail.com, L=Barcelona, ST=Spain, C=ES
        Subject Public Key Info:
            Public Key Algorithm: rsaEncryption
            RSA Public Key: (2048 bit)
                Modulus (2048 bit):
                    00:b7:6c:8a:7f:d8:6f:64:be:19:c4:56:09:54:d4:
                    91:08:33:89:2a:44:fe:9b:e6:d6:38:d2:e5:7d:6c:
                    f7:db:5f:55:68:24:a2:6d:f0:ce:5c:98:c3:3b:c8:
                    22:56:52:e0:9f:8d:e8:e1:54:4c:5d:71:25:3f:7f:
                    9a:d8:42:a5:a0:c1:a7:b4:6e:78:63:7b:3b:9e:6a:
                    9a:67:c9:07:84:21:c7:01:7a:0e:c1:5c:f5:42:0d:
                    a0:ac:2b:e2:1a:0a:fa:5c:1e:06:25:92:0c:0c:87:
                    63:13:81:b1:cc:09:a7:18:a8:cc:dd:33:d2:c8:d7:
                    16:7b:2f:2b:f6:04:7f:df:ef:46:11:d7:a0:bd:8b:
                    61:bc:71:84:68:73:2a:d8:d4:93:bd:d0:d8:87:99:
                    cc:03:de:9e:af:2b:b6:1b:98:f3:72:77:5f:04:55:
                    d5:fc:52:e1:1c:c9:90:27:52:d1:ae:c4:a2:f1:11:
                    46:17:4f:17:53:a2:0f:40:85:99:a0:55:5b:c3:2b:
                    10:90:85:db:89:01:5f:f9:19:68:4b:4c:a2:2c:fe:
                    97:ed:52:3e:b5:6c:f1:7d:fa:3d:92:0a:3a:96:0d:
                    bd:bf:eb:cc:cb:36:cb:f4:4f:b1:64:40:05:63:5e:
                    aa:7a:f7:b9:8f:fb:d6:ad:a0:34:76:be:42:28:82:
                    64:c3
                Exponent: 65537 (0x10001)
        X509v3 extensions:
            X509v3 Basic Constraints: 
                CA:TRUE
            X509v3 Key Usage: critical
                Certificate Sign, CRL Sign
            X509v3 Subject Key Identifier: 
                28:39:60:5C:AB:84:C7:C3:A3:BF:3D:2F:5C:2D:78:8D:29:FA:B2:7C
            X509v3 Authority Key Identifier: 
                keyid:20:86:90:FC:C8:6D:2A:D5:4F:93:06:9B:31:40:29:30:27:4A:02:08

            Authority Information Access: 
                CA Issuers - URI:https://github.com/f3at/feat/dev_ca/cainfo.html

            X509v3 CRL Distribution Points: 
                URI:https://github.com/f3at/feat/dev_crl/root_ca.crl

            X509v3 Certificate Policies: 
                Policy: Feat-CPS
                  CPS: https://github.com/f3at/feat/dev_ca/feat_cps.html
                  User Notice:
                    Explicit Text: Flumotion Services S.A. Development Certification Practice Statement
                Policy: Feat-CA-Cert
                  User Notice:
                    Explicit Text: Flumotion Services S.A. Development CA Certificate Policy

    Signature Algorithm: sha1WithRSAEncryption
        14:53:27:5b:08:1a:2c:8e:15:b1:74:af:98:c4:0d:eb:61:56:
        a6:7b:73:a2:97:ee:44:8c:d6:5b:32:3d:61:49:10:f1:af:82:
        5b:32:e1:7d:6d:dd:34:24:8e:ac:f8:d7:7b:31:d2:f4:ce:ec:
        34:7b:de:a1:72:c8:5f:97:41:77:12:9c:2f:f4:b0:0e:91:88:
        e6:62:88:34:b4:a9:f9:e6:16:95:78:e7:f3:71:a2:ec:2d:1f:
        75:a3:70:b2:07:82:2e:af:6c:54:5c:21:42:e8:3e:fa:52:6d:
        34:ff:de:69:bd:50:1a:35:c5:4f:09:02:4a:fa:ca:ba:f1:49:
        7a:f9:a8:6c:28:30:4d:5b:9e:ba:f0:98:3a:a2:c6:b0:02:6b:
        09:73:17:d4:ce:0a:c3:1e:34:e7:5c:2c:26:b3:55:42:0a:43:
        b8:d0:f5:b1:45:6a:03:b6:c2:2c:f6:64:2b:42:6d:e9:a0:6a:
        46:c2:95:e5:ae:74:3c:f3:b3:eb:0f:9b:07:d2:65:f5:66:4b:
        8f:68:86:db:d5:5e:56:66:dc:85:66:f3:74:ba:c9:57:31:59:
        ab:1b:2a:b4:b9:c3:63:b5:bf:76:97:c7:df:74:da:4e:2b:6c:
        e4:c7:0f:c7:17:93:18:e8:78:55:4e:9b:4c:a4:ba:b6:92:64:
        38:1a:0a:c6
-----BEGIN CERTIFICATE-----
MIIGRjCCBS6gAwIBAgIJAMfLrec4feobMA0GCSqGSIb3DQEBBQUAMIHdMSAwHgYD
VQQKExdGbHVtb3Rpb24gU2VydmljZXMgUy5BLjElMCMGA1UEChMcaHR0cHM6Ly9n
aXRodWIuY29tL2YzYXQvZmVhdDEXMBUGA1UECxMORmVhdCBDb3JlIFRlYW0xITAf
BgNVBAMTGEZlYXQgRGV2ZWxvcG1lbnQgUm9vdCBDQTElMCMGCSqGSIb3DQEJARYW
a293YWxza2kwMTIzQGdtYWlsLmNvbTESMBAGA1UEBxMJQmFyY2Vsb25hMQ4wDAYD
VQQIEwVTcGFpbjELMAkGA1UEBhMCRVMwHhcNMTIwMzE0MTEyNzQzWhcNMjAwMzEy
MTEyNzQzWjCB4jEgMB4GA1UEChMXRmx1bW90aW9uIFNlcnZpY2VzIFMuQS4xJTAj
BgNVBAoTHGh0dHBzOi8vZ2l0aHViLmNvbS9mM2F0L2ZlYXQxFzAVBgNVBAsTDkZl
YXQgQ29yZSBUZWFtMSYwJAYDVQQDEx1GZWF0IERldmVsb3BtZW50IFR1bm5lbGlu
ZyBDQTElMCMGCSqGSIb3DQEJARYWa293YWxza2kwMTIzQGdtYWlsLmNvbTESMBAG
A1UEBxMJQmFyY2Vsb25hMQ4wDAYDVQQIEwVTcGFpbjELMAkGA1UEBhMCRVMwggEi
MA0GCSqGSIb3DQEBAQUAA4IBDwAwggEKAoIBAQC3bIp/2G9kvhnEVglU1JEIM4kq
RP6b5tY40uV9bPfbX1VoJKJt8M5cmMM7yCJWUuCfjejhVExdcSU/f5rYQqWgwae0
bnhjezueappnyQeEIccBeg7BXPVCDaCsK+IaCvpcHgYlkgwMh2MTgbHMCacYqMzd
M9LI1xZ7Lyv2BH/f70YR16C9i2G8cYRocyrY1JO90NiHmcwD3p6vK7YbmPNyd18E
VdX8UuEcyZAnUtGuxKLxEUYXTxdTog9AhZmgVVvDKxCQhduJAV/5GWhLTKIs/pft
Uj61bPF9+j2SCjqWDb2/68zLNsv0T7FkQAVjXqp697mP+9atoDR2vkIogmTDAgMB
AAGjggIAMIIB/DAMBgNVHRMEBTADAQH/MA4GA1UdDwEB/wQEAwIBBjAdBgNVHQ4E
FgQUKDlgXKuEx8Ojvz0vXC14jSn6snwwHwYDVR0jBBgwFoAUIIaQ/MhtKtVPkwab
MUApMCdKAggwSwYIKwYBBQUHAQEEPzA9MDsGCCsGAQUFBzAChi9odHRwczovL2dp
dGh1Yi5jb20vZjNhdC9mZWF0L2Rldl9jYS9jYWluZm8uaHRtbDBBBgNVHR8EOjA4
MDagNKAyhjBodHRwczovL2dpdGh1Yi5jb20vZjNhdC9mZWF0L2Rldl9jcmwvcm9v
dF9jYS5jcmwwggEKBgNVHSAEggEBMIH+MIGiBgorBgEEAYHyJAEBMIGTMD0GCCsG
AQUFBwIBFjFodHRwczovL2dpdGh1Yi5jb20vZjNhdC9mZWF0L2Rldl9jYS9mZWF0
X2Nwcy5odG1sMFIGCCsGAQUFBwICMEYaREZsdW1vdGlvbiBTZXJ2aWNlcyBTLkEu
IERldmVsb3BtZW50IENlcnRpZmljYXRpb24gUHJhY3RpY2UgU3RhdGVtZW50MFcG
CisGAQQBgfIkAQIwSTBHBggrBgEFBQcCAjA7GjlGbHVtb3Rpb24gU2VydmljZXMg
Uy5BLiBEZXZlbG9wbWVudCBDQSBDZXJ0aWZpY2F0ZSBQb2xpY3kwDQYJKoZIhvcN
AQEFBQADggEBABRTJ1sIGiyOFbF0r5jEDethVqZ7c6KX7kSM1lsyPWFJEPGvglsy
4X1t3TQkjqz413sx0vTO7DR73qFyyF+XQXcSnC/0sA6RiOZiiDS0qfnmFpV45/Nx
ouwtH3WjcLIHgi6vbFRcIULoPvpSbTT/3mm9UBo1xU8JAkr6yrrxSXr5qGwoME1b
nrrwmDqixrACawlzF9TOCsMeNOdcLCazVUIKQ7jQ9bFFagO2wiz2ZCtCbemgakbC
leWudDzzs+sPmwfSZfVmS49ohtvVXlZm3IVm83S6yVcxWasbKrS5w2O1v3aXx990
2k4rbOTHD8cXkxjoeFVOm0ykuraSZDgaCsY=
-----END CERTIFICATE-----
