Certificate:
    Data:
        Version: 3 (0x2)
        Serial Number:
            81:e2:2c:99:3e:f6:ab:19
        Signature Algorithm: sha1WithRSAEncryption
        Issuer: O=Flumotion Services S.A., O=https://github.com/f3at/feat, OU=Feat Core Team, CN=Feat Development Tunneling CA/emailAddress=kowalski0123@gmail.com, L=Barcelona, ST=Spain, C=ES
        Validity
            Not Before: Mar 14 11:28:06 2012 GMT
            Not After : Mar 12 11:28:06 2020 GMT
        Subject: O=Flumotion Services S.A., O=https://github.com/f3at/feat, OU=Feat Core Team, CN=*.feat.lan/emailAddress=kowalski0123@gmail.com, L=Barcelona, ST=Spain, C=ES
        Subject Public Key Info:
            Public Key Algorithm: rsaEncryption
            RSA Public Key: (1024 bit)
                Modulus (1024 bit):
                    00:a5:92:d5:b3:3b:9c:5f:9b:51:6c:2d:d8:d4:90:
                    9b:4c:20:78:dd:36:8a:56:fd:ce:31:0a:c9:c7:ed:
                    9f:9b:15:ab:77:5e:7a:81:3d:b6:c9:a3:4b:6b:27:
                    18:51:de:8a:f3:53:8d:84:61:fe:8d:62:39:22:87:
                    ca:67:8c:a8:de:23:0a:a3:10:3a:88:18:9b:2c:1a:
                    dd:2f:9c:92:2e:81:75:ca:8b:12:2b:0c:94:88:ad:
                    5d:c7:08:e9:92:af:45:f0:18:28:a4:a5:fd:19:8f:
                    f3:17:2b:36:fa:fb:eb:fe:0d:b4:73:e7:a4:27:44:
                    52:70:26:59:c1:ef:e1:65:13
                Exponent: 65537 (0x10001)
        X509v3 extensions:
            X509v3 Basic Constraints: 
                CA:FALSE
            Netscape Comment: 
                SSL Server Certificate
            X509v3 Key Usage: critical
                Digital Signature, Key Encipherment
            X509v3 Extended Key Usage: 
                TLS Web Server Authentication, TLS Web Client Authentication, Microsoft Server Gated Crypto, Netscape Server Gated Crypto
            Netscape Cert Type: 
                SSL Client, SSL Server
            X509v3 Subject Key Identifier: 
                D3:1C:91:A4:CA:81:96:1D:91:D3:98:56:34:2B:75:A4:AF:CC:5B:BC
            X509v3 Authority Key Identifier: 
                keyid:28:39:60:5C:AB:84:C7:C3:A3:BF:3D:2F:5C:2D:78:8D:29:FA:B2:7C
                DirName:/O=Flumotion Services S.A./O=https://github.com/f3at/feat/OU=Feat Core Team/CN=Feat Development Root CA/emailAddress=kowalski0123@gmail.com/L=Barcelona/ST=Spain/C=ES
                serial:C7:CB:AD:E7:38:7D:EA:1B

            Authority Information Access: 
                CA Issuers - URI:https://github.com/f3at/feat/dev_ca/cainfo.html

            X509v3 CRL Distribution Points: 
                URI:https://github.com/f3at/feat/dev_crl/issuing_ca.crl

            X509v3 Certificate Policies: 
                Policy: Feat-CPS
                  CPS: https://github.com/f3at/feat/dev_ca/feat_cps.html
                  User Notice:
                    Explicit Text: Flumotion Services S.A. Certification Practice Statement
                Policy: Feat-TLS-WEB-Cert
                  User Notice:
                    Explicit Text: Flumotion Services S.A. Secure Communications Web Server Certificate Policy

    Signature Algorithm: sha1WithRSAEncryption
        58:20:68:ba:d0:7b:c3:c5:7e:4f:ca:0c:27:d0:af:3a:b8:5f:
        c6:56:d4:96:80:a0:45:36:12:7c:37:3c:79:bc:86:81:0b:08:
        f9:e7:10:61:15:60:16:a7:b8:52:e2:ed:5e:92:cb:57:ba:96:
        da:ac:a8:77:7c:81:b6:45:83:c7:6d:55:84:f9:2e:c6:7b:35:
        99:77:c6:f5:67:57:66:26:d6:8f:f3:96:82:1d:b9:80:ef:bb:
        81:1a:b0:9e:99:67:a3:3f:d0:c6:ef:6c:aa:1a:67:58:0e:a8:
        a5:95:a9:ea:62:73:cc:ed:8b:cf:c6:8d:9d:ff:c0:0b:ae:be:
        58:fc:c2:fe:2c:20:7c:b5:2f:d9:42:1e:6e:83:a7:1a:18:a0:
        3f:07:ff:00:e9:3c:03:d4:e9:f9:a4:a9:f6:3a:b5:17:f3:93:
        82:b0:f1:47:3a:31:15:91:76:8e:0b:13:be:16:5f:d9:9b:1c:
        41:de:e0:14:fe:9b:cb:84:69:a9:3e:89:ad:58:8c:e5:7a:70:
        be:a0:84:a4:3d:d8:39:e9:af:c1:75:f5:d5:b7:93:d1:60:dd:
        a5:c2:05:12:24:e6:6f:f4:df:94:ba:03:6b:de:b6:c1:46:94:
        22:5c:66:ca:41:7e:a5:33:0a:06:9c:96:9b:ce:0b:bb:4e:43:
        18:ce:72:0f
-----BEGIN CERTIFICATE-----
MIIHIjCCBgqgAwIBAgIJAIHiLJk+9qsZMA0GCSqGSIb3DQEBBQUAMIHiMSAwHgYD
VQQKExdGbHVtb3Rpb24gU2VydmljZXMgUy5BLjElMCMGA1UEChMcaHR0cHM6Ly9n
aXRodWIuY29tL2YzYXQvZmVhdDEXMBUGA1UECxMORmVhdCBDb3JlIFRlYW0xJjAk
BgNVBAMTHUZlYXQgRGV2ZWxvcG1lbnQgVHVubmVsaW5nIENBMSUwIwYJKoZIhvcN
AQkBFhZrb3dhbHNraTAxMjNAZ21haWwuY29tMRIwEAYDVQQHEwlCYXJjZWxvbmEx
DjAMBgNVBAgTBVNwYWluMQswCQYDVQQGEwJFUzAeFw0xMjAzMTQxMTI4MDZaFw0y
MDAzMTIxMTI4MDZaMIHPMSAwHgYDVQQKExdGbHVtb3Rpb24gU2VydmljZXMgUy5B
LjElMCMGA1UEChMcaHR0cHM6Ly9naXRodWIuY29tL2YzYXQvZmVhdDEXMBUGA1UE
CxMORmVhdCBDb3JlIFRlYW0xEzARBgNVBAMUCiouZmVhdC5sYW4xJTAjBgkqhkiG
9w0BCQEWFmtvd2Fsc2tpMDEyM0BnbWFpbC5jb20xEjAQBgNVBAcTCUJhcmNlbG9u
YTEOMAwGA1UECBMFU3BhaW4xCzAJBgNVBAYTAkVTMIGfMA0GCSqGSIb3DQEBAQUA
A4GNADCBiQKBgQClktWzO5xfm1FsLdjUkJtMIHjdNopW/c4xCsnH7Z+bFat3XnqB
PbbJo0trJxhR3orzU42EYf6NYjkih8pnjKjeIwqjEDqIGJssGt0vnJIugXXKixIr
DJSIrV3HCOmSr0XwGCikpf0Zj/MXKzb6++v+DbRz56QnRFJwJlnB7+FlEwIDAQAB
o4IDbjCCA2owCQYDVR0TBAIwADAlBglghkgBhvhCAQ0EGBYWU1NMIFNlcnZlciBD
ZXJ0aWZpY2F0ZTAOBgNVHQ8BAf8EBAMCBaAwNAYDVR0lBC0wKwYIKwYBBQUHAwEG
CCsGAQUFBwMCBgorBgEEAYI3CgMDBglghkgBhvhCBAEwEQYJYIZIAYb4QgEBBAQD
AgbAMB0GA1UdDgQWBBTTHJGkyoGWHZHTmFY0K3Wkr8xbvDCCARQGA1UdIwSCAQsw
ggEHgBQoOWBcq4THw6O/PS9cLXiNKfqyfKGB46SB4DCB3TEgMB4GA1UEChMXRmx1
bW90aW9uIFNlcnZpY2VzIFMuQS4xJTAjBgNVBAoTHGh0dHBzOi8vZ2l0aHViLmNv
bS9mM2F0L2ZlYXQxFzAVBgNVBAsTDkZlYXQgQ29yZSBUZWFtMSEwHwYDVQQDExhG
ZWF0IERldmVsb3BtZW50IFJvb3QgQ0ExJTAjBgkqhkiG9w0BCQEWFmtvd2Fsc2tp
MDEyM0BnbWFpbC5jb20xEjAQBgNVBAcTCUJhcmNlbG9uYTEOMAwGA1UECBMFU3Bh
aW4xCzAJBgNVBAYTAkVTggkAx8ut5zh96hswSwYIKwYBBQUHAQEEPzA9MDsGCCsG
AQUFBzAChi9odHRwczovL2dpdGh1Yi5jb20vZjNhdC9mZWF0L2Rldl9jYS9jYWlu
Zm8uaHRtbDBEBgNVHR8EPTA7MDmgN6A1hjNodHRwczovL2dpdGh1Yi5jb20vZjNh
dC9mZWF0L2Rldl9jcmwvaXNzdWluZ19jYS5jcmwwggERBgNVHSAEggEIMIIBBDCB
lgYKKwYBBAGB8iQBATCBhzA9BggrBgEFBQcCARYxaHR0cHM6Ly9naXRodWIuY29t
L2YzYXQvZmVhdC9kZXZfY2EvZmVhdF9jcHMuaHRtbDBGBggrBgEFBQcCAjA6GjhG
bHVtb3Rpb24gU2VydmljZXMgUy5BLiBDZXJ0aWZpY2F0aW9uIFByYWN0aWNlIFN0
YXRlbWVudDBpBgorBgEEAYHyJAMCMFswWQYIKwYBBQUHAgIwTRpLRmx1bW90aW9u
IFNlcnZpY2VzIFMuQS4gU2VjdXJlIENvbW11bmljYXRpb25zIFdlYiBTZXJ2ZXIg
Q2VydGlmaWNhdGUgUG9saWN5MA0GCSqGSIb3DQEBBQUAA4IBAQBYIGi60HvDxX5P
ygwn0K86uF/GVtSWgKBFNhJ8Nzx5vIaBCwj55xBhFWAWp7hS4u1ekstXupbarKh3
fIG2RYPHbVWE+S7GezWZd8b1Z1dmJtaP85aCHbmA77uBGrCemWejP9DG72yqGmdY
DqillanqYnPM7YvPxo2d/8ALrr5Y/ML+LCB8tS/ZQh5ug6caGKA/B/8A6TwD1On5
pKn2OrUX85OCsPFHOjEVkXaOCxO+Fl/ZmxxB3uAU/pvLhGmpPomtWIzlenC+oISk
Pdg56a/BdfXVt5PRYN2lwgUSJOZv9N+UugNr3rbBRpQiXGbKQX6lMwoGnJabzgu7
TkMYznIP
-----END CERTIFICATE-----
